 fibers

 Timestamp is 57e8c9e0 (Mon Sep 26 12:40:24 2016)

 Preferred load address is 0000000180000000

 Start         Length     Name                   Class
 0001:00000000 0000025cH .text$di                CODE
 0001:00000260 0001cac3H .text$mn                CODE
 0001:0001cd30 00000622H .text$x                 CODE
 0001:0001d360 00000248H .text$yd                CODE
 0002:00000000 00000290H .idata$5                DATA
 0002:00000290 00000008H .CRT$XCA                DATA
 0002:00000298 00000038H .CRT$XCC                DATA
 0002:000002d0 00000010H .CRT$XCL                DATA
 0002:000002e0 00000058H .CRT$XCU                DATA
 0002:00000338 00000008H .CRT$XCZ                DATA
 0002:00000340 00000008H .CRT$XIA                DATA
 0002:00000348 00000020H .CRT$XIC                DATA
 0002:00000368 00000008H .CRT$XIZ                DATA
 0002:00000370 00000008H .CRT$XPA                DATA
 0002:00000378 00000010H .CRT$XPX                DATA
 0002:00000388 00000008H .CRT$XPXA               DATA
 0002:00000390 00000008H .CRT$XPZ                DATA
 0002:00000398 00000008H .CRT$XTA                DATA
 0002:000003a0 00000008H .CRT$XTZ                DATA
 0002:000003b0 00009180H .rdata                  DATA
 0002:00009530 00000070H .rdata$debug            DATA
 0002:000095a0 00000cbcH .rdata$r                DATA
 0002:0000a260 00000008H .rtc$IAA                DATA
 0002:0000a268 00000008H .rtc$IZZ                DATA
 0002:0000a270 00000008H .rtc$TAA                DATA
 0002:0000a278 00000008H .rtc$TZZ                DATA
 0002:0000a280 0000196cH .xdata                  DATA
 0002:0000bbf0 0000029cH .xdata$x                DATA
 0002:0000be8c 00000020H .didat$2                DATA
 0002:0000beac 00000020H .didat$3                DATA
 0002:0000bed0 000001c0H .didat$4                DATA
 0002:0000c090 00000e3aH .didat$6                DATA
 0002:0000ced0 000001c0H .didat$7                DATA
 0002:0000d090 00000050H .edata                  DATA
 0002:0000d0e0 00000014H .idata$2                DATA
 0002:0000d0f4 00000014H .idata$3                DATA
 0002:0000d108 00000290H .idata$4                DATA
 0002:0000d398 000005e6H .idata$6                DATA
 0003:00000000 00001cb0H .data                   DATA
 0003:00001cb0 00000480H .data$r                 DATA
 0003:00002130 000001c0H .didat$5                DATA
 0003:00002300 00002a68H .bss                    DATA
 0004:00000000 00001974H .pdata                  DATA
 0005:00000000 00000058H .rsrc$01                DATA
 0005:00000060 00000180H .rsrc$02                DATA

  Address         Publics by Value              Rva+Base               Lib:Object

 0000:00000000       ___safe_se_handler_count   0000000000000000     <absolute>
 0000:00000000       __guard_fids_count         0000000000000000     <absolute>
 0000:00000000       ___safe_se_handler_table   0000000000000000     <absolute>
 0000:00000000       __guard_fids_table         0000000000000000     <absolute>
 0000:00000000       __guard_flags              0000000000000000     <absolute>
 0000:00000000       __ImageBase                0000000180000000     <linker-defined>
 0001:00000260       ?what@exception@stdext@@UEBAPEBDXZ 0000000180001260 f i fibers.obj
 0001:00000280       ?_Destroy@?$vector@PEAVFiber@@V?$allocator@PEAVFiber@@@std@@@std@@IEAAXPEAPEAVFiber@@0@Z 0000000180001280 f i fibers.obj
 0001:00000280       ?_Destroy@?$vector@PEAVCoroutine@@V?$allocator@PEAVCoroutine@@@std@@@std@@IEAAXPEAPEAVCoroutine@@0@Z 0000000180001280 f i coroutine.obj
 0001:00000280       ?imbue@?$basic_streambuf@DU?$char_traits@D@std@@@std@@MEAAXAEBVlocale@2@@Z 0000000180001280 f i libcpmt:cerr.obj
 0001:00000280       ?_Lock@?$basic_streambuf@DU?$char_traits@D@std@@@std@@UEAAXXZ 0000000180001280 f i libcpmt:cerr.obj
 0001:00000280       ?_Destroy@?$vector@PEAXV?$allocator@PEAX@std@@@std@@IEAAXPEAPEAX0@Z 0000000180001280 f i coroutine.obj
 0001:00000280       ?_Doraise@exception@stdext@@MEBAXXZ 0000000180001280 f i fibers.obj
 0001:00000280       ?_Unlock@?$basic_streambuf@DU?$char_traits@D@std@@@std@@UEAAXXZ 0000000180001280 f i libcpmt:cerr.obj
 0001:00000290       ??_Eexception@stdext@@UEAAPEAXI@Z 0000000180001290 f i * CIL library *:* CIL module *
 0001:00000290       ??_Eruntime_error@std@@UEAAPEAXI@Z 0000000180001290 f i * CIL library *:* CIL module *
 0001:00000290       ??_Efailure@ios_base@std@@UEAAPEAXI@Z 0000000180001290 f i * CIL library *:* CIL module *
 0001:00000290       ??_E_System_error@std@@UEAAPEAXI@Z 0000000180001290 f i * CIL library *:* CIL module *
 0001:00000290       ??_Gfailure@ios_base@std@@UEAAPEAXI@Z 0000000180001290 f i fibers.obj
 0001:00000290       ??_G_System_error@std@@UEAAPEAXI@Z 0000000180001290 f i fibers.obj
 0001:00000290       ??_Gexception@stdext@@UEAAPEAXI@Z 0000000180001290 f i fibers.obj
 0001:00000290       ??_Gruntime_error@std@@UEAAPEAXI@Z 0000000180001290 f i fibers.obj
 0001:000002c0       ??1runtime_error@std@@UEAA@XZ 00000001800012c0 f i fibers.obj
 0001:000002d0       ??0_System_error@std@@IEAA@Verror_code@1@AEBV?$basic_string@DU?$char_traits@D@std@@V?$allocator@D@2@@1@@Z 00000001800012d0 f i fibers.obj
 0001:00000440       ?clear@ios_base@std@@QEAAXH_N@Z 0000000180001440 f i fibers.obj
 0001:00000680       ?AdjustAmountOfExternalAllocatedMemory@uni@@YAXPEAVIsolate@v8@@_J@Z 0000000180001680 f   fibers.obj
 0001:000006d0       ?Unwrap@Fiber@@CAAEAV1@V?$Local@VObject@v8@@@v8@@@Z 00000001800016d0 f i fibers.obj
 0001:00000750       ??0Fiber@@AEAA@V?$Local@VObject@v8@@@v8@@V?$Local@VFunction@v8@@@2@V?$Local@VContext@v8@@@2@@Z 0000000180001750 f i fibers.obj
 0001:00000870       ??1Fiber@@EEAA@XZ          0000000180001870 f i fibers.obj
 0001:000008f0       ?WeakCallback@Fiber@@CAXPEAX@Z 00000001800018f0 f i fibers.obj
 0001:00000a40       ?DestroyOrphans@Fiber@@CAXXZ 0000000180001a40 f i fibers.obj
 0001:00000b90       ?New@Fiber@@CAXAEBV?$FunctionCallbackInfo@VValue@v8@@@v8@@@Z 0000000180001b90 f i fibers.obj
 0001:00000d20       ?Run@Fiber@@CAXAEBV?$FunctionCallbackInfo@VValue@v8@@@v8@@@Z 0000000180001d20 f i fibers.obj
 0001:00000fb0       ?ThrowInto@Fiber@@CAXAEBV?$FunctionCallbackInfo@VValue@v8@@@v8@@@Z 0000000180001fb0 f i fibers.obj
 0001:00001200       ?Reset@Fiber@@CAXAEBV?$FunctionCallbackInfo@VValue@v8@@@v8@@@Z 0000000180002200 f i fibers.obj
 0001:00001400       ?UnwindStack@Fiber@@AEAAXXZ 0000000180002400 f i fibers.obj
 0001:000015d0       ?SwapContext@Fiber@@AEAAXXZ 00000001800025d0 f i fibers.obj
 0001:00001690       ?RunFiber@Fiber@@CAXPEAPEAX@Z 0000000180002690 f i fibers.obj
 0001:00001a10       ?Yield_@Fiber@@CAXAEBV?$FunctionCallbackInfo@VValue@v8@@@v8@@@Z 0000000180002a10 f i fibers.obj
 0001:00001cd0       ?GetStarted@Fiber@@CAXV?$Local@VString@v8@@@v8@@AEBV?$PropertyCallbackInfo@VValue@v8@@@3@@Z 0000000180002cd0 f i fibers.obj
 0001:00001d70       ?GetCurrent@Fiber@@CAXV?$Local@VString@v8@@@v8@@AEBV?$PropertyCallbackInfo@VValue@v8@@@3@@Z 0000000180002d70 f i fibers.obj
 0001:00001de0       ?GetPoolSize@Fiber@@CAXV?$Local@VString@v8@@@v8@@AEBV?$PropertyCallbackInfo@VValue@v8@@@3@@Z 0000000180002de0 f i fibers.obj
 0001:00001e60       ?SetPoolSize@Fiber@@CAXV?$Local@VString@v8@@@v8@@V?$Local@VValue@v8@@@3@AEBV?$PropertyCallbackInfo@X@3@@Z 0000000180002e60 f i fibers.obj
 0001:00001ec0       ?GetFibersCreated@Fiber@@CAXV?$Local@VString@v8@@@v8@@AEBV?$PropertyCallbackInfo@VValue@v8@@@3@@Z 0000000180002ec0 f i fibers.obj
 0001:00001f30       ?Init@Fiber@@SAXV?$Local@VObject@v8@@@v8@@@Z 0000000180002f30 f i fibers.obj
 0001:00002360       ??_EFiber@@EEAAPEAXI@Z     0000000180003360 f i * CIL library *:* CIL module *
 0001:00002360       ??_GFiber@@EEAAPEAXI@Z     0000000180003360 f i fibers.obj
 0001:00002390       ?init@@YAXV?$Local@VObject@v8@@@v8@@@Z 0000000180003390 f   fibers.obj
 0001:00002490       ??1?$basic_string@DU?$char_traits@D@std@@V?$allocator@D@2@@std@@QEAA@XZ 0000000180003490 f i fibers.obj
 0001:000024d0       ??0?$vector@PEAVFiber@@V?$allocator@PEAVFiber@@@std@@@std@@QEAA@AEBV01@@Z 00000001800034d0 f i fibers.obj
 0001:00002590       ?append@?$basic_string@DU?$char_traits@D@std@@V?$allocator@D@2@@std@@QEAAAEAV12@AEBV12@_K1@Z 0000000180003590 f i fibers.obj
 0001:000026c0       ?append@?$basic_string@DU?$char_traits@D@std@@V?$allocator@D@2@@std@@QEAAAEAV12@PEBD_K@Z 00000001800036c0 f i fibers.obj
 0001:00002810       ?assign@?$basic_string@DU?$char_traits@D@std@@V?$allocator@D@2@@std@@QEAAAEAV12@AEBV12@_K1@Z 0000000180003810 f i fibers.obj
 0001:00002940       ?_Reserve@?$vector@PEAVFiber@@V?$allocator@PEAVFiber@@@std@@@std@@IEAAX_K@Z 0000000180003940 f i fibers.obj
 0001:000029e0       ?assign@?$basic_string@DU?$char_traits@D@std@@V?$allocator@D@2@@std@@QEAAAEAV12@PEBD_K@Z 00000001800039e0 f i fibers.obj
 0001:00002b20       ?erase@?$basic_string@DU?$char_traits@D@std@@V?$allocator@D@2@@std@@QEAAAEAV12@_K0@Z 0000000180003b20 f i fibers.obj
 0001:00002bf0       ?_Grow@?$basic_string@DU?$char_traits@D@std@@V?$allocator@D@2@@std@@QEAA_N_K_N@Z 0000000180003bf0 f i fibers.obj
 0001:00002cc0       ?flush@?$basic_ostream@DU?$char_traits@D@std@@@std@@QEAAAEAV12@XZ 0000000180003cc0 f i fibers.obj
 0001:00002db0       ?_Reallocate@?$vector@PEAVFiber@@V?$allocator@PEAVFiber@@@std@@@std@@IEAAX_K@Z 0000000180003db0 f i fibers.obj
 0001:00002e60       ??0?$_Wrap_alloc@V?$allocator@PEAVFiber@@@std@@@std@@QEAA@XZ 0000000180003e60 f i fibers.obj
 0001:00002e60       ??0?$_Wrap_alloc@V?$allocator@PEAVCoroutine@@@std@@@std@@QEAA@XZ 0000000180003e60 f i coroutine.obj
 0001:00002e60       ?setbuf@?$basic_streambuf@DU?$char_traits@D@std@@@std@@MEAAPEAV12@PEAD_J@Z 0000000180003e60 f i libcpmt:cerr.obj
 0001:00002e60       ??0?$_Wrap_alloc@V?$allocator@PEAX@std@@@std@@QEAA@XZ 0000000180003e60 f i coroutine.obj
 0001:00002e70       ?_Copy@?$basic_string@DU?$char_traits@D@std@@V?$allocator@D@2@@std@@QEAAX_K0@Z 0000000180003e70 f i fibers.obj
 0001:00002f60       ??0sentry@?$basic_ostream@DU?$char_traits@D@std@@@std@@QEAA@AEAV12@@Z 0000000180003f60 f i fibers.obj
 0001:00002fd0       ??$?6U?$char_traits@D@std@@@std@@YAAEAV?$basic_ostream@DU?$char_traits@D@std@@@0@AEAV10@PEBD@Z 0000000180003fd0 f i fibers.obj
 0001:00003220       ??$Reset@VValue@v8@@@uni@@YAXPEAVIsolate@v8@@AEAV?$Persistent@VValue@v8@@V?$NonCopyablePersistentTraits@VValue@v8@@@2@@2@V?$Local@VValue@v8@@@2@@Z 0000000180004220 f i fibers.obj
 0001:00003270       ??$WeakCallbackShim@$1?WeakCallback@Fiber@@CAXPEAX@ZVObject@v8@@X@uni@@YAXAEBV?$WeakCallbackData@VObject@v8@@X@v8@@@Z 0000000180004270 f i fibers.obj
 0001:00003430       ?init@Coroutine@@SAXPEAVIsolate@v8@@@Z 0000000180004430 f   coroutine.obj
 0001:000034f0       ?trampoline@Coroutine@@CAXPEAX@Z 00000001800044f0 f   coroutine.obj
 0001:000035e0       ??0Coroutine@@AEAA@XZ      00000001800045e0 f   coroutine.obj
 0001:00003660       ??0Coroutine@@AEAA@A6AXPEAX@Z0@Z 0000000180004660 f   coroutine.obj
 0001:000036e0       ?create_fiber@Coroutine@@SAPEAV1@P6AXPEAX@Z0@Z 00000001800046e0 f   coroutine.obj
 0001:00003810       ??_GCoroutine@@AEAAPEAXI@Z 0000000180004810 f i coroutine.obj
 0001:00003860       ?transfer@Coroutine@@AEAAXAEAV1@@Z 0000000180004860 f   coroutine.obj
 0001:00003970       ?run@Coroutine@@QEAAXXZ    0000000180004970 f   coroutine.obj
 0001:00003ab0       ?finish@Coroutine@@QEAAXAEAV1@@Z 0000000180004ab0 f   coroutine.obj
 0001:00003e70       ?resize@?$vector@PEAXV?$allocator@PEAX@std@@@std@@QEAAX_K@Z 0000000180004e70 f i coroutine.obj
 0001:00003f70       ?_Reallocate@?$vector@PEAXV?$allocator@PEAX@std@@@std@@IEAAX_K@Z 0000000180004f70 f i coroutine.obj
 0001:00004020       ?_Reserve@?$vector@PEAXV?$allocator@PEAX@std@@@std@@IEAAX_K@Z 0000000180005020 f i coroutine.obj
 0001:000040c0       ?_Reserve@?$vector@PEAVCoroutine@@V?$allocator@PEAVCoroutine@@@std@@@std@@IEAAX_K@Z 00000001800050c0 f i coroutine.obj
 0001:00004160       ?_Reallocate@?$vector@PEAVCoroutine@@V?$allocator@PEAVCoroutine@@@std@@@std@@IEAAX_K@Z 0000000180005160 f i coroutine.obj
 0001:00004210       coro_init                  0000000180005210 f   coro.obj
 0001:0000426c       __imp_load_node_module_register 000000018000526c f   node:node.exe
 0001:00004278       __tailMerge_node_exe       0000000180005278 f i node:node.exe
 0001:000042f1       __imp_load_?StackTrace@TryCatch@v8@@QEBA?AV?$Local@VValue@v8@@@2@XZ 00000001800052f1 f   node:node.exe
 0001:000042fd       __imp_load_?Exception@TryCatch@v8@@QEBA?AV?$Local@VValue@v8@@@2@XZ 00000001800052fd f   node:node.exe
 0001:00004309       __imp_load_?HasCaught@TryCatch@v8@@QEBA_NXZ 0000000180005309 f   node:node.exe
 0001:00004315       __imp_load_??1TryCatch@v8@@QEAA@XZ 0000000180005315 f   node:node.exe
 0001:00004321       __imp_load_??0TryCatch@v8@@QEAA@XZ 0000000180005321 f   node:node.exe
 0001:0000432d       __imp_load_?Initialize@Locker@v8@@AEAAXPEAVIsolate@2@@Z 000000018000532d f   node:node.exe
 0001:00004339       __imp_load_??1Locker@v8@@QEAA@XZ 0000000180005339 f   node:node.exe
 0001:00004345       __imp_load_?New@Signature@v8@@SA?AV?$Local@VSignature@v8@@@2@PEAVIsolate@2@V?$Local@VFunctionTemplate@v8@@@2@@Z 0000000180005345 f   node:node.exe
 0001:00004351       __imp_load_?Exit@Context@v8@@QEAAXXZ 0000000180005351 f   node:node.exe
 0001:0000435d       __imp_load_?Enter@Context@v8@@QEAAXXZ 000000018000535d f   node:node.exe
 0001:00004369       __imp_load_?Global@Context@v8@@QEAA?AV?$Local@VObject@v8@@@2@XZ 0000000180005369 f   node:node.exe
 0001:00004375       __imp_load_?Compile@Script@v8@@SA?AV?$Local@VScript@v8@@@2@V?$Local@VString@v8@@@2@PEAVScriptOrigin@2@@Z 0000000180005375 f   node:node.exe
 0001:00004381       __imp_load_?ClearWeak@V8@v8@@CAPEAXPEAPEAVObject@internal@2@@Z 0000000180005381 f   node:node.exe
 0001:0000438d       __imp_load_?MakeWeak@V8@v8@@CAXPEAPEAVObject@internal@2@PEAXP6AXAEBV?$WeakCallbackData@VValue@v8@@X@2@@Z@Z 000000018000538d f   node:node.exe
 0001:00004399       __imp_load_?DisposeGlobal@V8@v8@@CAXPEAPEAVObject@internal@2@@Z 0000000180005399 f   node:node.exe
 0001:000043a5       __imp_load_?GlobalizeReference@V8@v8@@CAPEAPEAVObject@internal@2@PEAVIsolate@42@PEAPEAV342@@Z 00000001800053a5 f   node:node.exe
 0001:000043b1       __imp_load_?StrictEquals@Value@v8@@QEBA_NV?$Local@VValue@v8@@@2@@Z 00000001800053b1 f   node:node.exe
 0001:000043bd       __imp_load_?IsFunction@Value@v8@@QEBA_NXZ 00000001800053bd f   node:node.exe
 0001:000043c9       __imp_load_?SetClassName@FunctionTemplate@v8@@QEAAXV?$Local@VString@v8@@@2@@Z 00000001800053c9 f   node:node.exe
 0001:000043d5       __imp_load_?PrototypeTemplate@FunctionTemplate@v8@@QEAA?AV?$Local@VObjectTemplate@v8@@@2@XZ 00000001800053d5 f   node:node.exe
 0001:000043e1       __imp_load_?InstanceTemplate@FunctionTemplate@v8@@QEAA?AV?$Local@VObjectTemplate@v8@@@2@XZ 00000001800053e1 f   node:node.exe
 0001:000043ed       __imp_load_?GetFunction@FunctionTemplate@v8@@QEAA?AV?$Local@VFunction@v8@@@2@XZ 00000001800053ed f   node:node.exe
 0001:000043f9       __imp_load_?New@FunctionTemplate@v8@@SA?AV?$Local@VFunctionTemplate@v8@@@2@PEAVIsolate@2@P6AXAEBV?$FunctionCallbackInfo@VValue@v8@@@2@@ZV?$Local@VValue@v8@@@2@V?$Local@VSignature@v8@@@2@H@Z 00000001800053f9 f   node:node.exe
 0001:00004405       __imp_load_?Error@Exception@v8@@SA?AV?$Local@VValue@v8@@@2@V?$Local@VString@v8@@@2@@Z 0000000180005405 f   node:node.exe
 0001:00004411       __imp_load_?TypeError@Exception@v8@@SA?AV?$Local@VValue@v8@@@2@V?$Local@VString@v8@@@2@@Z 0000000180005411 f   node:node.exe
 0001:0000441d       __imp_load_?RangeError@Exception@v8@@SA?AV?$Local@VValue@v8@@@2@V?$Local@VString@v8@@@2@@Z 000000018000541d f   node:node.exe
 0001:00004429       __imp_load_??0Utf8Value@String@v8@@QEAA@V?$Local@VValue@v8@@@2@@Z 0000000180005429 f   node:node.exe
 0001:00004435       __imp_load_?NewFromOneByte@String@v8@@SA?AV?$Local@VString@v8@@@2@PEAVIsolate@2@PEBEW4NewStringType@12@H@Z 0000000180005435 f   node:node.exe
 0001:00004441       __imp_load_?CreateHandle@HandleScope@v8@@KAPEAPEAVObject@internal@2@PEAVIsolate@42@PEAV342@@Z 0000000180005441 f   node:node.exe
 0001:0000444d       __imp_load_??1HandleScope@v8@@QEAA@XZ 000000018000544d f   node:node.exe
 0001:00004459       __imp_load_??0HandleScope@v8@@QEAA@PEAVIsolate@1@@Z 0000000180005459 f   node:node.exe
 0001:00004465       __imp_load_?New@Number@v8@@SA?AV?$Local@VNumber@v8@@@2@PEAVIsolate@2@N@Z 0000000180005465 f   node:node.exe
 0001:00004471       __imp_load_?Value@Number@v8@@QEBANXZ 0000000180005471 f   node:node.exe
 0001:0000447d       __imp_load_?SlowGetAlignedPointerFromInternalField@Object@v8@@AEAAPEAXH@Z 000000018000547d f   node:node.exe
 0001:00004489       __imp_load_?SetAlignedPointerInInternalField@Object@v8@@QEAAXHPEAX@Z 0000000180005489 f   node:node.exe
 0001:00004495       __imp_load_?InternalFieldCount@Object@v8@@QEAAHXZ 0000000180005495 f   node:node.exe
 0001:000044a1       __imp_load_?SetAccessor@Object@v8@@QEAA_NV?$Local@VString@v8@@@2@P6AX0AEBV?$PropertyCallbackInfo@VValue@v8@@@2@@ZP6AX0V?$Local@VValue@v8@@@2@AEBV?$PropertyCallbackInfo@X@2@@Z3W4AccessControl@2@W4PropertyAttribute@2@@Z 00000001800054a1 f   node:node.exe
 0001:000044ad       __imp_load_?Get@Object@v8@@QEAA?AV?$Local@VValue@v8@@@2@V32@@Z 00000001800054ad f   node:node.exe
 0001:000044b9       __imp_load_?Set@Object@v8@@QEAA_NV?$Local@VValue@v8@@@2@0@Z 00000001800054b9 f   node:node.exe
 0001:000044c5       __imp_load_?Initialize@Unlocker@v8@@AEAAXPEAVIsolate@2@@Z 00000001800054c5 f   node:node.exe
 0001:000044d1       __imp_load_??1Unlocker@v8@@QEAA@XZ 00000001800054d1 f   node:node.exe
 0001:000044dd       __imp_load_?Set@Template@v8@@QEAAXV?$Local@VName@v8@@@2@V?$Local@VData@v8@@@2@W4PropertyAttribute@2@@Z 00000001800054dd f   node:node.exe
 0001:000044e9       __imp_load_?SetInternalFieldCount@ObjectTemplate@v8@@QEAAXH@Z 00000001800054e9 f   node:node.exe
 0001:000044f5       __imp_load_?SetAccessor@ObjectTemplate@v8@@QEAAXV?$Local@VString@v8@@@2@P6AX0AEBV?$PropertyCallbackInfo@VValue@v8@@@2@@ZP6AX0V?$Local@VValue@v8@@@2@AEBV?$PropertyCallbackInfo@X@2@@Z3W4AccessControl@2@W4PropertyAttribute@2@V?$Local@VAccessorSignature@v8@@@2@@Z 00000001800054f5 f   node:node.exe
 0001:00004501       __imp_load_?Call@Function@v8@@QEAA?AV?$Local@VValue@v8@@@2@V32@HQEAV32@@Z 0000000180005501 f   node:node.exe
 0001:0000450d       __imp_load_?NewInstance@Function@v8@@QEBA?AV?$Local@VObject@v8@@@2@HQEAV?$Local@VValue@v8@@@2@@Z 000000018000550d f   node:node.exe
 0001:00004519       __imp_load_?ReportExternalAllocationLimitReached@Isolate@v8@@AEAAXXZ 0000000180005519 f   node:node.exe
 0001:00004525       __imp_load_?SetStackLimit@Isolate@v8@@QEAAX_K@Z 0000000180005525 f   node:node.exe
 0001:00004531       __imp_load_?ThrowException@Isolate@v8@@QEAA?AV?$Local@VValue@v8@@@2@V32@@Z 0000000180005531 f   node:node.exe
 0001:0000453d       __imp_load_?GetCurrentContext@Isolate@v8@@QEAA?AV?$Local@VContext@v8@@@2@XZ 000000018000553d f   node:node.exe
 0001:00004549       __imp_load_?Exit@Isolate@v8@@QEAAXXZ 0000000180005549 f   node:node.exe
 0001:00004555       __imp_load_?Enter@Isolate@v8@@QEAAXXZ 0000000180005555 f   node:node.exe
 0001:00004561       __imp_load_?GetCurrent@Isolate@v8@@SAPEAV12@XZ 0000000180005561 f   node:node.exe
 0001:0000456d       __imp_load_?ToNumber@Value@v8@@QEBA?AV?$Local@VNumber@v8@@@2@XZ 000000018000556d f   node:node.exe
 0001:0000457c       ??0bad_alloc@std@@QEAA@AEBV01@@Z 000000018000557c f i libcpmt:xthrow.obj
 0001:000045a0       ??0length_error@std@@QEAA@AEBV01@@Z 00000001800055a0 f i libcpmt:xthrow.obj
 0001:000045c4       ??0logic_error@std@@QEAA@AEBV01@@Z 00000001800055c4 f i libcpmt:xthrow.obj
 0001:000045e8       ??0out_of_range@std@@QEAA@AEBV01@@Z 00000001800055e8 f i libcpmt:xthrow.obj
 0001:0000460c       ??0runtime_error@std@@QEAA@AEBV01@@Z 000000018000560c f i libcpmt:xthrow.obj
 0001:00004630       ??1bad_alloc@std@@UEAA@XZ  0000000180005630 f i libcpmt:xthrow.obj
 0001:00004640       ??1out_of_range@std@@UEAA@XZ 0000000180005640 f i libcpmt:xthrow.obj
 0001:00004640       ??1length_error@std@@UEAA@XZ 0000000180005640 f i libcpmt:xthrow.obj
 0001:00004648       ??_Ebad_alloc@std@@UEAAPEAXI@Z 0000000180005648 f i libcpmt:xthrow.obj
 0001:00004648       ??_Gbad_alloc@std@@UEAAPEAXI@Z 0000000180005648 f i libcpmt:xthrow.obj
 0001:00004684       ??_Elength_error@std@@UEAAPEAXI@Z 0000000180005684 f i libcpmt:xthrow.obj
 0001:00004684       ??_Eout_of_range@std@@UEAAPEAXI@Z 0000000180005684 f i libcpmt:xthrow.obj
 0001:00004684       ??_Glength_error@std@@UEAAPEAXI@Z 0000000180005684 f i libcpmt:xthrow.obj
 0001:00004684       ??_Gout_of_range@std@@UEAAPEAXI@Z 0000000180005684 f i libcpmt:xthrow.obj
 0001:00004684       ??_Elogic_error@std@@UEAAPEAXI@Z 0000000180005684 f i libcpmt:xthrow.obj
 0001:00004684       ??_Glogic_error@std@@UEAAPEAXI@Z 0000000180005684 f i libcpmt:xthrow.obj
 0001:000046b4       ?_Xbad_alloc@std@@YAXXZ    00000001800056b4 f   libcpmt:xthrow.obj
 0001:000046f8       ?_Xlength_error@std@@YAXPEBD@Z 00000001800056f8 f   libcpmt:xthrow.obj
 0001:00004730       ?_Xout_of_range@std@@YAXPEBD@Z 0000000180005730 f   libcpmt:xthrow.obj
 0001:00004768       ??$use_facet@V?$codecvt@DDH@std@@@std@@YAAEBV?$codecvt@DDH@0@AEBVlocale@0@@Z 0000000180005768 f i libcpmt:cerr.obj
 0001:00004898       ??$use_facet@V?$ctype@D@std@@@std@@YAAEBV?$ctype@D@0@AEBVlocale@0@@Z 0000000180005898 f i libcpmt:cerr.obj
 0001:000049c8       ??0?$basic_ostream@DU?$char_traits@D@std@@@std@@QEAA@PEAV?$basic_streambuf@DU?$char_traits@D@std@@@1@_N@Z 00000001800059c8 f i libcpmt:cerr.obj
 0001:00004a44       ??0?$basic_streambuf@DU?$char_traits@D@std@@@std@@IEAA@XZ 0000000180005a44 f i libcpmt:cerr.obj
 0001:00004ae8       ??0_Locinfo@std@@QEAA@PEBD@Z 0000000180005ae8 f i libcpmt:cerr.obj
 0001:00004b94       ??1?$_Yarn@D@std@@QEAA@XZ  0000000180005b94 f i libcpmt:cerr.obj
 0001:00004b94       ??1?$_Yarn@_W@std@@QEAA@XZ 0000000180005b94 f i libcpmt:cerr.obj
 0001:00004bb4       ??1?$basic_filebuf@DU?$char_traits@D@std@@@std@@UEAA@XZ 0000000180005bb4 f i libcpmt:cerr.obj
 0001:00004c74       ??1?$basic_ios@DU?$char_traits@D@std@@@std@@UEAA@XZ 0000000180005c74 f i libcpmt:cerr.obj
 0001:00004c84       ??1_Locinfo@std@@QEAA@XZ   0000000180005c84 f i libcpmt:cerr.obj
 0001:00004d14       ??1locale@std@@QEAA@XZ     0000000180005d14 f i libcpmt:cerr.obj
 0001:00004d14       _Deletegloballocale        0000000180005d14 f i libcpmt:locale0.obj
 0001:00004d40       ??_E?$basic_ostream@DU?$char_traits@D@std@@@std@@$4PPPPPPPM@A@EAAPEAXI@Z 0000000180005d40 f i libcpmt:cerr.obj
 0001:00004d4c       ??_E?$basic_filebuf@DU?$char_traits@D@std@@@std@@UEAAPEAXI@Z 0000000180005d4c f i libcpmt:cerr.obj
 0001:00004d4c       ??_G?$basic_filebuf@DU?$char_traits@D@std@@@std@@UEAAPEAXI@Z 0000000180005d4c f i libcpmt:cerr.obj
 0001:00004d7c       ??_Eios_base@std@@UEAAPEAXI@Z 0000000180005d7c f i libcpmt:cerr.obj
 0001:00004d7c       ??_Gios_base@std@@UEAAPEAXI@Z 0000000180005d7c f i libcpmt:cerr.obj
 0001:00004d7c       ??_E?$basic_ios@DU?$char_traits@D@std@@@std@@UEAAPEAXI@Z 0000000180005d7c f i libcpmt:cerr.obj
 0001:00004d7c       ??_G?$basic_ios@DU?$char_traits@D@std@@@std@@UEAAPEAXI@Z 0000000180005d7c f i libcpmt:cerr.obj
 0001:00004db8       ??_E?$basic_ostream@DU?$char_traits@D@std@@@std@@UEAAPEAXI@Z 0000000180005db8 f i libcpmt:cerr.obj
 0001:00004db8       ??_G?$basic_ostream@DU?$char_traits@D@std@@@std@@UEAAPEAXI@Z 0000000180005db8 f i libcpmt:cerr.obj
 0001:00004e1c       ??_E?$basic_streambuf@DU?$char_traits@D@std@@@std@@UEAAPEAXI@Z 0000000180005e1c f i libcpmt:cerr.obj
 0001:00004e1c       ??_G?$basic_streambuf@DU?$char_traits@D@std@@@std@@UEAAPEAXI@Z 0000000180005e1c f i libcpmt:cerr.obj
 0001:00004e90       ??_G?$ctype@D@std@@MEAAPEAXI@Z 0000000180005e90 f i libcpmt:cerr.obj
 0001:00004e90       ??_E?$ctype@D@std@@MEAAPEAXI@Z 0000000180005e90 f i libcpmt:cerr.obj
 0001:00004ef8       ??_E?$codecvt@DDH@std@@MEAAPEAXI@Z 0000000180005ef8 f i libcpmt:cerr.obj
 0001:00004ef8       ??_E_Facet_base@std@@UEAAPEAXI@Z 0000000180005ef8 f i libcpmt:cerr.obj
 0001:00004ef8       ??_G_Facet_base@std@@UEAAPEAXI@Z 0000000180005ef8 f i libcpmt:cerr.obj
 0001:00004ef8       ??_G?$codecvt@DDH@std@@MEAAPEAXI@Z 0000000180005ef8 f i libcpmt:cerr.obj
 0001:00004f20       ?_Decref@facet@locale@std@@UEAAPEAV_Facet_base@3@XZ 0000000180005f20 f i libcpmt:cerr.obj
 0001:00004f30       ?_Endwrite@?$basic_filebuf@DU?$char_traits@D@std@@@std@@IEAA_NXZ 0000000180005f30 f i libcpmt:cerr.obj
 0001:000050cc       ?_Getcat@?$codecvt@DDH@std@@SA_KPEAPEBVfacet@locale@2@PEBV42@@Z 00000001800060cc f i libcpmt:cerr.obj
 0001:00005190       ?_Getcat@?$ctype@D@std@@SA_KPEAPEBVfacet@locale@2@PEBV42@@Z 0000000180006190 f i libcpmt:cerr.obj
 0001:00005274       ?_Incref@facet@locale@std@@UEAAXXZ 0000000180006274 f i libcpmt:cerr.obj
 0001:0000527c       ?_Init@?$basic_filebuf@DU?$char_traits@D@std@@@std@@IEAAXPEAU_iobuf@@W4_Initfl@12@@Z 000000018000627c f i libcpmt:cerr.obj
 0001:00005328       ?_Init@ios_base@std@@IEAAXXZ 0000000180006328 f i libcpmt:cerr.obj
 0001:0000539c       ?_Initcvt@?$basic_filebuf@DU?$char_traits@D@std@@@std@@IEAAXPEBV?$codecvt@DDH@2@@Z 000000018000639c f i libcpmt:cerr.obj
 0001:00005424       ?_Lock@?$basic_filebuf@DU?$char_traits@D@std@@@std@@UEAAXXZ 0000000180006424 f i libcpmt:cerr.obj
 0001:00005440       ?_Unlock@?$basic_filebuf@DU?$char_traits@D@std@@@std@@UEAAXXZ 0000000180006440 f i libcpmt:cerr.obj
 0001:0000545c       ?append@?$basic_string@DU?$char_traits@D@std@@V?$allocator@D@2@@std@@QEAAAEAV12@_KD@Z 000000018000645c f i libcpmt:cerr.obj
 0001:00005524       ?do_always_noconv@?$codecvt@DDH@std@@MEBA_NXZ 0000000180006524 f i libcpmt:cerr.obj
 0001:00005528       DllMain                    0000000180006528 f i LIBCMT:dllmain.obj
 0001:00005528       ?do_encoding@codecvt_base@std@@MEBAHXZ 0000000180006528 f i libcpmt:cerr.obj
 0001:00005528       ?do_max_length@codecvt_base@std@@MEBAHXZ 0000000180006528 f i libcpmt:cerr.obj
 0001:00005530       ?do_out@?$codecvt@DDH@std@@MEBAHAEAHPEBD1AEAPEBDPEAD3AEAPEAD@Z 0000000180006530 f i libcpmt:cerr.obj
 0001:00005530       ?do_in@?$codecvt@DDH@std@@MEBAHAEAHPEBD1AEAPEBDPEAD3AEAPEAD@Z 0000000180006530 f i libcpmt:cerr.obj
 0001:0000554c       ?do_length@?$codecvt@DDH@std@@MEBAHAEAHPEBD1_K@Z 000000018000654c f i libcpmt:cerr.obj
 0001:00005560       ?do_widen@?$ctype@D@std@@MEBADD@Z 0000000180006560 f i libcpmt:cerr.obj
 0001:00005560       ?do_narrow@?$ctype@D@std@@MEBADDD@Z 0000000180006560 f i libcpmt:cerr.obj
 0001:00005564       ?do_narrow@?$ctype@D@std@@MEBAPEBDPEBD0DPEAD@Z 0000000180006564 f i libcpmt:cerr.obj
 0001:00005584       ?do_tolower@?$ctype@D@std@@MEBADD@Z 0000000180006584 f i libcpmt:cerr.obj
 0001:00005594       ?do_tolower@?$ctype@D@std@@MEBAPEBDPEADPEBD@Z 0000000180006594 f i libcpmt:cerr.obj
 0001:000055f4       ?do_toupper@?$ctype@D@std@@MEBADD@Z 00000001800065f4 f i libcpmt:cerr.obj
 0001:00005604       ?do_toupper@?$ctype@D@std@@MEBAPEBDPEADPEBD@Z 0000000180006604 f i libcpmt:cerr.obj
 0001:00005664       ?do_unshift@?$codecvt@DDH@std@@MEBAHAEAHPEAD1AEAPEAD@Z 0000000180006664 f i libcpmt:cerr.obj
 0001:00005670       ?do_widen@?$ctype@D@std@@MEBAPEBDPEBD0PEAD@Z 0000000180006670 f i libcpmt:cerr.obj
 0001:00005690       ?getloc@ios_base@std@@QEBA?AVlocale@2@XZ 0000000180006690 f i libcpmt:cerr.obj
 0001:000056b8       ?imbue@?$basic_filebuf@DU?$char_traits@D@std@@@std@@MEAAXAEBVlocale@2@@Z 00000001800066b8 f i libcpmt:cerr.obj
 0001:000056dc       ?init@?$basic_ios@DU?$char_traits@D@std@@@std@@IEAAXPEAV?$basic_streambuf@DU?$char_traits@D@std@@@2@_N@Z 00000001800066dc f i libcpmt:cerr.obj
 0001:0000578c       ?overflow@?$basic_filebuf@DU?$char_traits@D@std@@@std@@MEAAHH@Z 000000018000678c f i libcpmt:cerr.obj
 0001:000059d4       ?pbackfail@?$basic_filebuf@DU?$char_traits@D@std@@@std@@MEAAHH@Z 00000001800069d4 f i libcpmt:cerr.obj
 0001:00005aa4       ?pbackfail@?$basic_streambuf@DU?$char_traits@D@std@@@std@@MEAAHH@Z 0000000180006aa4 f i libcpmt:cerr.obj
 0001:00005aa4       ?overflow@?$basic_streambuf@DU?$char_traits@D@std@@@std@@MEAAHH@Z 0000000180006aa4 f i libcpmt:cerr.obj
 0001:00005aa4       ?underflow@?$basic_streambuf@DU?$char_traits@D@std@@@std@@MEAAHXZ 0000000180006aa4 f i libcpmt:cerr.obj
 0001:00005aa8       ?seekoff@?$basic_filebuf@DU?$char_traits@D@std@@@std@@MEAA?AV?$fpos@H@2@_JHH@Z 0000000180006aa8 f i libcpmt:cerr.obj
 0001:00005b94       ?seekpos@?$basic_filebuf@DU?$char_traits@D@std@@@std@@MEAA?AV?$fpos@H@2@V32@H@Z 0000000180006b94 f i libcpmt:cerr.obj
 0001:00005c98       ?seekpos@?$basic_streambuf@DU?$char_traits@D@std@@@std@@MEAA?AV?$fpos@H@2@V32@H@Z 0000000180006c98 f i libcpmt:cerr.obj
 0001:00005c98       ?seekoff@?$basic_streambuf@DU?$char_traits@D@std@@@std@@MEAA?AV?$fpos@H@2@_JHH@Z 0000000180006c98 f i libcpmt:cerr.obj
 0001:00005cb0       ?setbuf@?$basic_filebuf@DU?$char_traits@D@std@@@std@@MEAAPEAV?$basic_streambuf@DU?$char_traits@D@std@@@2@PEAD_J@Z 0000000180006cb0 f i libcpmt:cerr.obj
 0001:00005d04       ?sync@?$basic_filebuf@DU?$char_traits@D@std@@@std@@MEAAHXZ 0000000180006d04 f i libcpmt:cerr.obj
 0001:00005d4c       ?uflow@?$basic_filebuf@DU?$char_traits@D@std@@@std@@MEAAHXZ 0000000180006d4c f i libcpmt:cerr.obj
 0001:00005f98       ?uflow@?$basic_streambuf@DU?$char_traits@D@std@@@std@@MEAAHXZ 0000000180006f98 f i libcpmt:cerr.obj
 0001:00005fd0       ?underflow@?$basic_filebuf@DU?$char_traits@D@std@@@std@@MEAAHXZ 0000000180006fd0 f i libcpmt:cerr.obj
 0001:00006028       ?xsgetn@?$basic_streambuf@DU?$char_traits@D@std@@@std@@MEAA_JPEAD_J@Z 0000000180007028 f i libcpmt:cerr.obj
 0001:000060e0       ?xsputn@?$basic_streambuf@DU?$char_traits@D@std@@@std@@MEAA_JPEBD_J@Z 00000001800070e0 f i libcpmt:cerr.obj
 0001:0000619c       ??_U@YAPEAX_K@Z            000000018000719c f   libcpmt:newaop.obj
 0001:000061a4       ??0_Init_locks@std@@QEAA@XZ 00000001800071a4 f   libcpmt:xlock.obj
 0001:000061f0       ??0_Lockit@std@@QEAA@H@Z   00000001800071f0 f   libcpmt:xlock.obj
 0001:00006230       ??1_Init_locks@std@@QEAA@XZ 0000000180007230 f   libcpmt:xlock.obj
 0001:0000626c       ??1_Lockit@std@@QEAA@XZ    000000018000726c f   libcpmt:xlock.obj
 0001:000062a4       _Getctype                  00000001800072a4 f   libcpmt:_tolower.obj
 0001:00006320       _Tolower                   0000000180007320 f   libcpmt:_tolower.obj
 0001:00006454       _Toupper                   0000000180007454 f   libcpmt:_toupper.obj
 0001:00006598       ??4?$_Yarn@D@std@@QEAAAEAV01@PEBD@Z 0000000180007598 f i libcpmt:locale0.obj
 0001:00006610       ??_E_Locimp@locale@std@@MEAAPEAXI@Z 0000000180007610 f i libcpmt:locale0.obj
 0001:00006610       ??_G_Locimp@locale@std@@MEAAPEAXI@Z 0000000180007610 f i libcpmt:locale0.obj
 0001:00006668       ?_Facet_Register@std@@YAXPEAV_Facet_base@1@@Z 0000000180007668 f   libcpmt:locale0.obj
 0001:0000669c       ?_Getgloballocale@locale@std@@CAPEAV_Locimp@12@XZ 000000018000769c f   libcpmt:locale0.obj
 0001:000066a4       ?_Init@locale@std@@CAPEAV_Locimp@12@_N@Z 00000001800076a4 f   libcpmt:locale0.obj
 0001:00006744       ?_Locimp_dtor@_Locimp@locale@std@@CAXPEAV123@@Z 0000000180007744 f   libcpmt:locale0.obj
 0001:000067bc       ?_Locinfo_ctor@_Locinfo@std@@SAXPEAV12@PEBD@Z 00000001800077bc f   libcpmt:locale0.obj
 0001:00006828       ?_Locinfo_dtor@_Locinfo@std@@SAXPEAV12@@Z 0000000180007828 f   libcpmt:locale0.obj
 0001:0000684c       ?_New_Locimp@_Locimp@locale@std@@CAPEAV123@_N@Z 000000018000784c f   libcpmt:locale0.obj
 0001:000068b8       ?_Setgloballocale@locale@std@@CAXPEAX@Z 00000001800078b8 f   libcpmt:locale0.obj
 0001:00006920       ?_Addstd@ios_base@std@@SAXPEAV12@@Z 0000000180007920 f   libcpmt:ios.obj
 0001:00006990       ?_Ios_base_dtor@ios_base@std@@CAXPEAV12@@Z 0000000180007990 f   libcpmt:ios.obj
 0001:000069f4       ?_Tidy@ios_base@std@@AEAAXXZ 00000001800079f4 f i libcpmt:ios.obj
 0001:00006a64       ?_Atexit@@YAXP6AXXZ@Z      0000000180007a64 f   libcpmt:iosptrs.obj
 0001:00006aa4       _Mtxdst                    0000000180007aa4 f   libcpmt:xmtx.obj
 0001:00006aac       _Mtxinit                   0000000180007aac f   libcpmt:xmtx.obj
 0001:00006abc       _Mtxlock                   0000000180007abc f   libcpmt:xmtx.obj
 0001:00006ac4       _Mtxunlock                 0000000180007ac4 f   libcpmt:xmtx.obj
 0001:00006ae0       __security_check_cookie    0000000180007ae0 f   LIBCMT:amdsecgs.obj
 0001:00006b00       _call_reportfault          0000000180007b00 f   LIBCMT:invarg.obj
 0001:00006bf4       _initp_misc_invarg         0000000180007bf4 f   LIBCMT:invarg.obj
 0001:00006bfc       _invalid_parameter         0000000180007bfc f   LIBCMT:invarg.obj
 0001:00006c64       _invalid_parameter_noinfo  0000000180007c64 f   LIBCMT:invarg.obj
 0001:00006c84       _invoke_watson             0000000180007c84 f   LIBCMT:invarg.obj
 0001:00006cd0       memcpy                     0000000180007cd0 f   LIBCMT:memcpy.obj
 0001:00006cd0       memmove                    0000000180007cd0 f   LIBCMT:memcpy.obj
 0001:00007238       _wassert                   0000000180008238 f   LIBCMT:wassert.obj
 0001:00007b9c       __onexitinit               0000000180008b9c f   LIBCMT:onexit.obj
 0001:00007be0       _onexit                    0000000180008be0 f   LIBCMT:onexit.obj
 0001:00007cec       atexit                     0000000180008cec f   LIBCMT:onexit.obj
 0001:00007d04       ??_V@YAXPEAX@Z             0000000180008d04 f   LIBCMT:delete2.obj
 0001:00007d0c       _purecall                  0000000180008d0c f   LIBCMT:purevirt.obj
 0001:00007d38       ??3@YAXPEAX@Z              0000000180008d38 f   LIBCMT:delete.obj
 0001:00007d40       __crtCorExitProcess        0000000180008d40 f   LIBCMT:crt0dat.obj
 0001:00007d84       __crtExitProcess           0000000180008d84 f   LIBCMT:crt0dat.obj
 0001:00007d9c       __freeCrtMemory            0000000180008d9c f   LIBCMT:crt0dat.obj
 0001:00007ee4       _amsg_exit                 0000000180008ee4 f   LIBCMT:crt0dat.obj
 0001:00007f0c       _cexit                     0000000180008f0c f   LIBCMT:crt0dat.obj
 0001:00007f1c       _cinit                     0000000180008f1c f   LIBCMT:crt0dat.obj
 0001:00007fb4       _exit                      0000000180008fb4 f   LIBCMT:crt0dat.obj
 0001:00007fc0       _init_pointers             0000000180008fc0 f   LIBCMT:crt0dat.obj
 0001:0000806c       _initterm_e                000000018000906c f   LIBCMT:crt0dat.obj
 0001:000080a8       _lockexit                  00000001800090a8 f   LIBCMT:crt0dat.obj
 0001:000080b4       _unlockexit                00000001800090b4 f   LIBCMT:crt0dat.obj
 0001:00008258       exit                       0000000180009258 f   LIBCMT:crt0dat.obj
 0001:00008264       ??2@YAPEAX_K@Z             0000000180009264 f   LIBCMT:new.obj
 0001:000082d0       ??0_LocaleUpdate@@QEAA@PEAUlocaleinfo_struct@@@Z 00000001800092d0 f i LIBCMT:stricmp.obj
 0001:00008378       __ascii_stricmp            0000000180009378 f   LIBCMT:stricmp.obj
 0001:000083b4       _stricmp                   00000001800093b4 f   LIBCMT:stricmp.obj
 0001:000083fc       _stricmp_l                 00000001800093fc f   LIBCMT:stricmp.obj
 0001:000084b0       _CRT_INIT                  00000001800094b0 f   LIBCMT:dllcrt0.obj
 0001:00008610       _DllMainCRTStartup         0000000180009610 f   LIBCMT:dllcrt0.obj
 0001:00008780       strlen                     0000000180009780 f   LIBCMT:strlen.obj
 0001:00008828       _CxxThrowException         0000000180009828 f   LIBCMT:throw.obj
 0001:000088f0       ?_GetEstablisherFrame@@YAPEA_KPEA_KPEAU_xDISPATCHER_CONTEXT@@PEBU_s_FuncInfo@@0@Z 00000001800098f0 f   LIBCMT:trnsctrl.obj
 0001:000089bc       ?_GetRangeOfTrysToCheck@@YAPEBU_s_TryBlockMapEntry@@PEA_KPEBU_s_FuncInfo@@HHPEAI2PEAU_xDISPATCHER_CONTEXT@@@Z 00000001800099bc f   LIBCMT:trnsctrl.obj
 0001:00008ae8       ?__FrameUnwindToEmptyState@@YAXPEA_KPEAU_xDISPATCHER_CONTEXT@@PEBU_s_FuncInfo@@@Z 0000000180009ae8 f   LIBCMT:trnsctrl.obj
 0001:00008b7c       ?__SehTransFilter@@YAHPEAU_EXCEPTION_POINTERS@@PEAUEHExceptionRecord@@PEA_KPEAU_CONTEXT@@PEAU_xDISPATCHER_CONTEXT@@PEBU_s_FuncInfo@@PEAH@Z 0000000180009b7c f   LIBCMT:trnsctrl.obj
 0001:00008c20       _CallSETranslator          0000000180009c20 f   LIBCMT:trnsctrl.obj
 0001:00008c74       _CreateFrameInfo           0000000180009c74 f   LIBCMT:trnsctrl.obj
 0001:00008cb8       _FindAndUnlinkFrame        0000000180009cb8 f   LIBCMT:trnsctrl.obj
 0001:00008d18       _GetImageBase              0000000180009d18 f   LIBCMT:trnsctrl.obj
 0001:00008d30       _GetThrowImageBase         0000000180009d30 f   LIBCMT:trnsctrl.obj
 0001:00008d48       _IsExceptionObjectToBeDestroyed 0000000180009d48 f   LIBCMT:trnsctrl.obj
 0001:00008d7c       _SetImageBase              0000000180009d7c f   LIBCMT:trnsctrl.obj
 0001:00008d98       _SetThrowImageBase         0000000180009d98 f   LIBCMT:trnsctrl.obj
 0001:00008db4       _UnwindNestedFrames        0000000180009db4 f   LIBCMT:trnsctrl.obj
 0001:00008ed8       __CxxFrameHandler3         0000000180009ed8 f   LIBCMT:trnsctrl.obj
 0001:00008f60       ??8type_info@@QEBA_NAEBV0@@Z 0000000180009f60 f   LIBCMT:typinfo.obj
 0001:00008f80       ??_Gtype_info@@UEAAPEAXI@Z 0000000180009f80 f i LIBCMT:typinfo.obj
 0001:00008f80       ??_Etype_info@@UEAAPEAXI@Z 0000000180009f80 f i LIBCMT:typinfo.obj
 0001:00008fbc       _fpmath                    0000000180009fbc f   LIBCMT:fpinit.obj
 0001:00008fc4       _cfltcvt_init              0000000180009fc4 f   LIBCMT:fpinit.obj
 0001:0000904c       ??0bad_cast@std@@QEAA@AEBV01@@Z 000000018000a04c f   LIBCMT:stdexcpt.obj
 0001:00009070       ??0bad_cast@std@@QEAA@PEBD@Z 000000018000a070 f   LIBCMT:stdexcpt.obj
 0001:0000909c       ??0exception@std@@QEAA@AEBQEBD@Z 000000018000a09c f   LIBCMT:stdexcpt.obj
 0001:000090cc       ??0exception@std@@QEAA@AEBQEBDH@Z 000000018000a0cc f   LIBCMT:stdexcpt.obj
 0001:000090e8       ??0exception@std@@QEAA@AEBV01@@Z 000000018000a0e8 f   LIBCMT:stdexcpt.obj
 0001:00009114       ??1exception@std@@UEAA@XZ  000000018000a114 f   LIBCMT:stdexcpt.obj
 0001:00009114       ??1bad_cast@std@@UEAA@XZ   000000018000a114 f   LIBCMT:stdexcpt.obj
 0001:00009124       ??4exception@std@@QEAAAEAV01@AEBV01@@Z 000000018000a124 f   LIBCMT:stdexcpt.obj
 0001:00009168       ??_Eexception@std@@UEAAPEAXI@Z 000000018000a168 f i LIBCMT:stdexcpt.obj
 0001:00009168       ??_Gbad_cast@std@@UEAAPEAXI@Z 000000018000a168 f i LIBCMT:stdexcpt.obj
 0001:00009168       ??_Ebad_cast@std@@UEAAPEAXI@Z 000000018000a168 f i LIBCMT:stdexcpt.obj
 0001:00009168       ??_Gexception@std@@UEAAPEAXI@Z 000000018000a168 f i LIBCMT:stdexcpt.obj
 0001:000091a4       ?_Copy_str@exception@std@@AEAAXPEBD@Z 000000018000a1a4 f   LIBCMT:stdexcpt.obj
 0001:00009200       ?_Tidy@exception@std@@AEAAXXZ 000000018000a200 f   LIBCMT:stdexcpt.obj
 0001:00009228       ?what@exception@std@@UEBAPEBDXZ 000000018000a228 f   LIBCMT:stdexcpt.obj
 0001:0000923c       __initstdio                000000018000a23c f   LIBCMT:_file.obj
 0001:000092d4       __endstdio                 000000018000a2d4 f   LIBCMT:_file.obj
 0001:00009304       __iob_func                 000000018000a304 f   LIBCMT:_file.obj
 0001:0000930c       _lock_file                 000000018000a30c f   LIBCMT:_file.obj
 0001:00009374       _lock_file2                000000018000a374 f   LIBCMT:_file.obj
 0001:000093a8       _unlock_file               000000018000a3a8 f   LIBCMT:_file.obj
 0001:000093f8       _unlock_file2              000000018000a3f8 f   LIBCMT:_file.obj
 0001:00009418       _fclose_nolock             000000018000a418 f   LIBCMT:fclose.obj
 0001:00009494       fclose                     000000018000a494 f   LIBCMT:fclose.obj
 0001:000094fc       _fflush_nolock             000000018000a4fc f   LIBCMT:fflush.obj
 0001:00009548       _flush                     000000018000a548 f   LIBCMT:fflush.obj
 0001:000095c4       _flushall                  000000018000a5c4 f   LIBCMT:fflush.obj
 0001:000095d0       fflush                     000000018000a5d0 f   LIBCMT:fflush.obj
 0001:000096fc       fgetc                      000000018000a6fc f   LIBCMT:fgetc.obj
 0001:000097fc       fgetpos                    000000018000a7fc f   LIBCMT:fgetpos.obj
 0001:00009848       fputc                      000000018000a848 f   LIBCMT:fputc.obj
 0001:00009958       fsetpos                    000000018000a958 f   LIBCMT:fsetpos.obj
 0001:00009990       _fseeki64                  000000018000a990 f   LIBCMT:fseeki64.obj
 0001:00009a04       _fseeki64_nolock           000000018000aa04 f   LIBCMT:fseeki64.obj
 0001:00009ab8       _fwrite_nolock             000000018000aab8 f   LIBCMT:fwrite.obj
 0001:00009c48       fwrite                     000000018000ac48 f   LIBCMT:fwrite.obj
 0001:00009cd8       setvbuf                    000000018000acd8 f   LIBCMT:setvbuf.obj
 0001:00009df0       _ungetc_nolock             000000018000adf0 f   LIBCMT:ungetc.obj
 0001:00009ef8       ungetc                     000000018000aef8 f   LIBCMT:ungetc.obj
 0001:00009f58       free                       000000018000af58 f   LIBCMT:free.obj
 0001:00009f98       memcpy_s                   000000018000af98 f   LIBCMT:memcpy_s.obj
 0001:0000a030       memset                     000000018000b030 f   LIBCMT:memset.obj
 0001:0000a25c       __GSHandlerCheck_EH        000000018000b25c f   LIBCMT:gshandlereh.obj
 0001:0000a2ec       _lock                      000000018000b2ec f   LIBCMT:mlock.obj
 0001:0000a330       _mtdeletelocks             000000018000b330 f   LIBCMT:mlock.obj
 0001:0000a3b8       _mtinitlocknum             000000018000b3b8 f   LIBCMT:mlock.obj
 0001:0000a478       _mtinitlocks               000000018000b478 f   LIBCMT:mlock.obj
 0001:0000a4dc       _unlock                    000000018000b4dc f   LIBCMT:mlock.obj
 0001:0000a4f4       __pctype_func              000000018000b4f4 f   LIBCMT:ctype.obj
 0001:0000a530       isdigit                    000000018000b530 f i LIBCMT:_ctype.obj
 0001:0000a5ac       islower                    000000018000b5ac f i LIBCMT:_ctype.obj
 0001:0000a628       isupper                    000000018000b628 f i LIBCMT:_ctype.obj
 0001:0000a6a4       _wcsdup                    000000018000b6a4 f   LIBCMT:wcsdup.obj
 0001:0000a71c       ___lc_codepage_func        000000018000b71c f   LIBCMT:initctyp.obj
 0001:0000a754       ___lc_locale_name_func     000000018000b754 f   LIBCMT:initctyp.obj
 0001:0000a790       __init_ctype               000000018000b790 f   LIBCMT:initctyp.obj
 0001:0000aea0       __crtLCMapStringA          000000018000bea0 f   LIBCMT:a_map.obj
 0001:0000af38       _calloc_crt                000000018000bf38 f   LIBCMT:crtheap.obj
 0001:0000afb8       _malloc_crt                000000018000bfb8 f   LIBCMT:crtheap.obj
 0001:0000b034       _realloc_crt               000000018000c034 f   LIBCMT:crtheap.obj
 0001:0000b0b8       malloc                     000000018000c0b8 f   LIBCMT:malloc.obj
 0001:0000b170       setlocale                  000000018000c170 f   LIBCMT:setlocal.obj
 0001:0000b3e0       _set_abort_behavior        000000018000c3e0 f   LIBCMT:abort.obj
 0001:0000b3fc       abort                      000000018000c3fc f   LIBCMT:abort.obj
 0001:0000b454       __crtCaptureCurrentContext 000000018000c454 f   LIBCMT:winapisupp.obj
 0001:0000b4c4       __crtCapturePreviousContext 000000018000c4c4 f   LIBCMT:winapisupp.obj
 0001:0000b538       __crtFlsAlloc              000000018000c538 f   LIBCMT:winapisupp.obj
 0001:0000b554       __crtFlsFree               000000018000c554 f   LIBCMT:winapisupp.obj
 0001:0000b570       __crtFlsGetValue           000000018000c570 f   LIBCMT:winapisupp.obj
 0001:0000b58c       __crtFlsSetValue           000000018000c58c f   LIBCMT:winapisupp.obj
 0001:0000b5a8       __crtInitializeCriticalSectionEx 000000018000c5a8 f   LIBCMT:winapisupp.obj
 0001:0000b5d4       __crtIsPackagedApp         000000018000c5d4 f   LIBCMT:winapisupp.obj
 0001:0000b620       __crtLoadWinApiPointers    000000018000c620 f   LIBCMT:winapisupp.obj
 0001:0000ba1c       __crtSleep                 000000018000ca1c f   LIBCMT:winapisupp.obj
 0001:0000ba24       __crtTerminateProcess      000000018000ca24 f   LIBCMT:winapisupp.obj
 0001:0000ba44       __crtUnhandledException    000000018000ca44 f   LIBCMT:winapisupp.obj
 0001:0000ba80       strcmp                     000000018000ca80 f   LIBCMT:strcmp.obj
 0001:0000bae8       __GSHandlerCheck           000000018000cae8 f   LIBCMT:gshandler.obj
 0001:0000bb08       __GSHandlerCheckCommon     000000018000cb08 f   LIBCMT:gshandler.obj
 0001:0000bb6c       __doserrno                 000000018000cb6c f   LIBCMT:dosmap.obj
 0001:0000bb8c       _dosmaperr                 000000018000cb8c f   LIBCMT:dosmap.obj
 0001:0000bbdc       _errno                     000000018000cbdc f   LIBCMT:dosmap.obj
 0001:0000bbfc       _get_errno_from_oserr      000000018000cbfc f   LIBCMT:dosmap.obj
 0001:0000bcc8       _ismbblead                 000000018000ccc8 f   LIBCMT:ismbbyte.obj
 0001:0000bcdc       wcslen                     000000018000ccdc f   LIBCMT:wcslen.obj
 0001:0000bcf8       _tolower_l                 000000018000ccf8 f   LIBCMT:tolower.obj
 0001:0000be4c       tolower                    000000018000ce4c f   LIBCMT:tolower.obj
 0001:0000be80       memcmp                     000000018000ce80 f   LIBCMT:memcmp.obj
 0001:0000bf48       GetTableIndexFromLcid      000000018000cf48 f   LIBCMT:winapinls.obj
 0001:0000bf8c       GetTableIndexFromLocaleName 000000018000cf8c f   LIBCMT:winapinls.obj
 0001:0000c018       __crtDownlevelLCIDToLocaleName 000000018000d018 f   LIBCMT:winapinls.obj
 0001:0000c0c8       __crtDownlevelLocaleNameToLCID 000000018000d0c8 f   LIBCMT:winapinls.obj
 0001:0000c108       __crtEnumSystemLocalesEx   000000018000d108 f   LIBCMT:winapinls.obj
 0001:0000c14c       __crtGetLocaleInfoEx       000000018000d14c f   LIBCMT:winapinls.obj
 0001:0000c19c       __crtGetUserDefaultLocaleName 000000018000d19c f   LIBCMT:winapinls.obj
 0001:0000c1e0       __crtIsValidLocaleName     000000018000d1e0 f   LIBCMT:winapinls.obj
 0001:0000c214       __crtLCMapStringEx         000000018000d214 f   LIBCMT:winapinls.obj
 0001:0000c2a4       __wcsnicmp_ascii           000000018000d2a4 f   LIBCMT:winapinls.obj
 0001:0000c2fc       __crtLCMapStringW          000000018000d2fc f   LIBCMT:w_map.obj
 0001:0000c348       __raise_securityfailure    000000018000d348 f   LIBCMT:gs_report.obj
 0001:0000c394       __report_gsfailure         000000018000d394 f   LIBCMT:gs_report.obj
 0001:0000c468       __report_rangecheckfailure 000000018000d468 f   LIBCMT:gs_report.obj
 0001:0000c47c       __report_securityfailure   000000018000d47c f   LIBCMT:gs_report.obj
 0001:0000c518       __crt_debugger_hook        000000018000d518 f   LIBCMT:dbghook.obj
 0001:0000c520       __isa_available_init       000000018000d520 f   LIBCMT:cpu_disp.obj
 0001:0000c6c4       wcscat_s                   000000018000d6c4 f   LIBCMT:wcscat_s.obj
 0001:0000c74c       wcscpy_s                   000000018000d74c f   LIBCMT:wcscpy_s.obj
 0001:0000c7b8       wcsncat_s                  000000018000d7b8 f   LIBCMT:wcsncat_s.obj
 0001:0000c8a0       _set_error_mode            000000018000d8a0 f   LIBCMT:errmode.obj
 0001:0000c8e0       _itow_s                    000000018000d8e0 f   LIBCMT:xtows.obj
 0001:0000ca18       fwprintf                   000000018000da18 f   LIBCMT:fwprintf.obj
 0001:0000caac       _vswprintf_c_l             000000018000daac f   LIBCMT:vswprnc.obj
 0001:0000cae4       _vswprintf_helper          000000018000dae4 f   LIBCMT:vswprnc.obj
 0001:0000cc00       __get_sigabrt              000000018000dc00 f   LIBCMT:winsig.obj
 0001:0000cc10       _initp_misc_winsig         000000018000dc10 f   LIBCMT:winsig.obj
 0001:0000cc30       raise                      000000018000dc30 f   LIBCMT:winsig.obj
 0001:0000ce64       __crtMessageBoxW           000000018000de64 f   LIBCMT:crtmboxw.obj
 0001:0000d0d8       _FF_MSGBANNER              000000018000e0d8 f   LIBCMT:crt0msg.obj
 0001:0000d11c       _GET_RTERRMSG              000000018000e11c f   LIBCMT:crt0msg.obj
 0001:0000d14c       _NMSG_WRITE                000000018000e14c f   LIBCMT:crt0msg.obj
 0001:0000d3bc       _msize                     000000018000e3bc f   LIBCMT:msize.obj
 0001:0000d3f8       __C_specific_handler       000000018000e3f8 f   LIBCMT:chandler.obj
 0001:0000d5dc       __getlocaleinfo            000000018000e5dc f   LIBCMT:inithelp.obj
 0001:0000d7c4       _initp_misc_purevirt       000000018000e7c4 f   LIBCMT:inithelp.obj
 0001:0000d7cc       _RTC_Initialize            000000018000e7cc f   LIBCMT:initsect.obj
 0001:0000d804       _RTC_Terminate             000000018000e804 f   LIBCMT:initsect.obj
 0001:0000d840       _FindPESection             000000018000e840 f   LIBCMT:pesect.obj
 0001:0000d890       _IsNonwritableInCurrentImage 000000018000e890 f   LIBCMT:pesect.obj
 0001:0000d8e0       _ValidateImageBase         000000018000e8e0 f   LIBCMT:pesect.obj
 0001:0000d910       _initp_misc_cfltcvt_tab    000000018000e910 f   LIBCMT:cmiscdat.obj
 0001:0000d94c       ?_inconsistency@@YAXXZ     000000018000e94c f   LIBCMT:hooks.obj
 0001:0000d96c       ?terminate@@YAXXZ          000000018000e96c f   LIBCMT:hooks.obj
 0001:0000d98c       _initp_eh_hooks            000000018000e98c f   LIBCMT:hooks.obj
 0001:0000d9ac       _callnewh                  000000018000e9ac f   LIBCMT:handler.obj
 0001:0000d9e0       _initp_heap_handler        000000018000e9e0 f   LIBCMT:handler.obj
 0001:0000d9e8       _initp_misc_rand_s         000000018000e9e8 f   LIBCMT:rand_s.obj
 0001:0000d9f0       __initmbctable             000000018000e9f0 f   LIBCMT:mbctype.obj
 0001:0000dd0c       __updatetmbcinfo           000000018000ed0c f   LIBCMT:mbctype.obj
 0001:0000ddc8       _setmbcp                   000000018000edc8 f   LIBCMT:mbctype.obj
 0001:0000e00c       _setmbcp_nolock            000000018000f00c f   LIBCMT:mbctype.obj
 0001:0000e2bc       _ftbuf                     000000018000f2bc f   LIBCMT:_sftbuf.obj
 0001:0000e2f4       _stbuf                     000000018000f2f4 f   LIBCMT:_sftbuf.obj
 0001:0000e3c4       __addlocaleref             000000018000f3c4 f   LIBCMT:localref.obj
 0001:0000e450       __freetlocinfo             000000018000f450 f   LIBCMT:localref.obj
 0001:0000e5e8       __removelocaleref          000000018000f5e8 f   LIBCMT:localref.obj
 0001:0000e68c       __updatetlocinfo           000000018000f68c f   LIBCMT:localref.obj
 0001:0000e704       _updatetlocinfoEx_nolock   000000018000f704 f   LIBCMT:localref.obj
 0001:0000e768       _freefls                   000000018000f768 f   LIBCMT:tidtable.obj
 0001:0000e89c       _freeptd                   000000018000f89c f   LIBCMT:tidtable.obj
 0001:0000e8d8       _getptd                    000000018000f8d8 f   LIBCMT:tidtable.obj
 0001:0000e8fc       _getptd_noexit             000000018000f8fc f   LIBCMT:tidtable.obj
 0001:0000e980       _initptd                   000000018000f980 f   LIBCMT:tidtable.obj
 0001:0000ea44       _mtinit                    000000018000fa44 f   LIBCMT:tidtable.obj
 0001:0000eac4       _mtterm                    000000018000fac4 f   LIBCMT:tidtable.obj
 0001:0000eae8       _locterm                   000000018000fae8 f   LIBCMT:wsetloca.obj
 0001:0000eb30       __copy_locale_name         000000018000fb30 f   LIBCMT:wsetloca.obj
 0001:0000ebb4       __lc_lctowcs               000000018000fbb4 f   LIBCMT:wsetloca.obj
 0001:0000ec58       __lc_wcstolc               000000018000fc58 f   LIBCMT:wsetloca.obj
 0001:0000eecc       _expandlocale              000000018000fecc f   LIBCMT:wsetloca.obj
 0001:0000f2a0       _wcscats                   00000001800102a0 f   LIBCMT:wsetloca.obj
 0001:0000f308       _wsetlocale                0000000180010308 f   LIBCMT:wsetloca.obj
 0001:0000fbf4       _XcptFilter                0000000180010bf4 f   LIBCMT:winxfltr.obj
 0001:0000fdc0       __CppXcptFilter            0000000180010dc0 f   LIBCMT:winxfltr.obj
 0001:0000fdd4       _heap_init                 0000000180010dd4 f   LIBCMT:heapinit.obj
 0001:0000fdf4       _heap_term                 0000000180010df4 f   LIBCMT:heapinit.obj
 0001:0000fe00       _ioinit                    0000000180010e00 f   LIBCMT:ioinit.obj
 0001:00010130       _ioterm                    0000000180011130 f   LIBCMT:ioinit.obj
 0001:000101a4       _setargv                   00000001800111a4 f   LIBCMT:stdargv.obj
 0001:00010460       _setenvp                   0000000180011460 f   LIBCMT:stdenvp.obj
 0001:00010594       __security_init_cookie     0000000180011594 f   LIBCMT:gs_support.obj
 0001:00010640       __crtGetEnvironmentStringsA 0000000180011640 f   LIBCMT:a_env.obj
 0001:00010734       __DestructExceptionObject  0000000180011734 f   LIBCMT:frame.obj
 0001:000107a4       ??0bad_exception@std@@QEAA@AEBV01@@Z 00000001800117a4 f i LIBCMT:frame.obj
 0001:000107c8       ??1bad_exception@std@@UEAA@XZ 00000001800117c8 f i LIBCMT:frame.obj
 0001:000107d8       ??_Gbad_exception@std@@UEAAPEAXI@Z 00000001800117d8 f i LIBCMT:frame.obj
 0001:000107d8       ??_Ebad_exception@std@@UEAAPEAXI@Z 00000001800117d8 f i LIBCMT:frame.obj
 0001:000110cc       __AdjustPointer            00000001800120cc f   LIBCMT:frame.obj
 0001:000110f0       __BuildCatchObject         00000001800120f0 f   LIBCMT:frame.obj
 0001:000111a8       __BuildCatchObjectHelper   00000001800121a8 f   LIBCMT:frame.obj
 0001:000113f8       __CxxCallCatchBlock        00000001800123f8 f   LIBCMT:frame.obj
 0001:000115fc       __FrameUnwindFilter        00000001800125fc f   LIBCMT:frame.obj
 0001:00011650       __FrameUnwindToState       0000000180012650 f   LIBCMT:frame.obj
 0001:000117e4       __InternalCxxFrameHandler  00000001800127e4 f   LIBCMT:frame.obj
 0001:00011a08       __TypeMatch                0000000180012a08 f   LIBCMT:frame.obj
 0001:00011b38       ?__GetCurrentState@@YAHPEA_KPEAU_xDISPATCHER_CONTEXT@@PEBU_s_FuncInfo@@@Z 0000000180012b38 f   LIBCMT:ehstate.obj
 0001:00011b60       ?__GetUnwindTryBlock@@YAHPEA_KPEAU_xDISPATCHER_CONTEXT@@PEBU_s_FuncInfo@@@Z 0000000180012b60 f   LIBCMT:ehstate.obj
 0001:00011b8c       ?__SetState@@YAXPEA_KPEAU_xDISPATCHER_CONTEXT@@PEBU_s_FuncInfo@@H@Z 0000000180012b8c f   LIBCMT:ehstate.obj
 0001:00011b98       ?__SetUnwindTryBlock@@YAXPEA_KPEAU_xDISPATCHER_CONTEXT@@PEBU_s_FuncInfo@@H@Z 0000000180012b98 f   LIBCMT:ehstate.obj
 0001:00011bd4       ?__StateFromControlPc@@YAHPEBU_s_FuncInfo@@PEAU_xDISPATCHER_CONTEXT@@@Z 0000000180012bd4 f   LIBCMT:ehstate.obj
 0001:00011bdc       ?__StateFromIp@@YAHPEBU_s_FuncInfo@@PEAU_xDISPATCHER_CONTEXT@@_J@Z 0000000180012bdc f   LIBCMT:ehstate.obj
 0001:00011c68       ?_Type_info_dtor@type_info@@CAXPEAV1@@Z 0000000180012c68 f   LIBCMT:typname.obj
 0001:00011cd4       _cfltcvt                   0000000180012cd4 f   LIBCMT:cvt.obj
 0001:00011cf8       _cfltcvt_l                 0000000180012cf8 f   LIBCMT:cvt.obj
 0001:00011d78       _cftoa_l                   0000000180012d78 f   LIBCMT:cvt.obj
 0001:00012324       _cftoe_l                   0000000180013324 f   LIBCMT:cvt.obj
 0001:00012580       _cftof_l                   0000000180013580 f   LIBCMT:cvt.obj
 0001:00012654       _cftog_l                   0000000180013654 f   LIBCMT:cvt.obj
 0001:00012788       _cropzeros                 0000000180013788 f   LIBCMT:cvt.obj
 0001:00012790       _cropzeros_l               0000000180013790 f   LIBCMT:cvt.obj
 0001:00012828       _fassign                   0000000180013828 f   LIBCMT:cvt.obj
 0001:00012830       _fassign_l                 0000000180013830 f   LIBCMT:cvt.obj
 0001:00012870       _forcdecpt                 0000000180013870 f   LIBCMT:cvt.obj
 0001:00012878       _forcdecpt_l               0000000180013878 f   LIBCMT:cvt.obj
 0001:000128f8       _positive                  00000001800138f8 f   LIBCMT:cvt.obj
 0001:0001290c       strcpy_s                   000000018001390c f   LIBCMT:strcpy_s.obj
 0001:00012970       _fcloseall                 0000000180013970 f   LIBCMT:closeall.obj
 0001:00012a18       _fileno                    0000000180013a18 f   LIBCMT:fileno.obj
 0001:00012a40       _close                     0000000180013a40 f   LIBCMT:close.obj
 0001:00012b04       _close_nolock              0000000180013b04 f   LIBCMT:close.obj
 0001:00012bc0       _freebuf                   0000000180013bc0 f   LIBCMT:_freebuf.obj
 0001:00012bf8       _commit                    0000000180013bf8 f   LIBCMT:commit.obj
 0001:00012cd0       _write                     0000000180013cd0 f   LIBCMT:write.obj
 0001:00012db4       _write_nolock              0000000180013db4 f   LIBCMT:write.obj
 0001:000135a8       _filbuf                    00000001800145a8 f   LIBCMT:_filbuf.obj
 0001:000136ec       _ftelli64                  00000001800146ec f   LIBCMT:ftelli64.obj
 0001:00013748       _ftelli64_nolock           0000000180014748 f   LIBCMT:ftelli64.obj
 0001:00013a5c       _flsbuf                    0000000180014a5c f   LIBCMT:_flsbuf.obj
 0001:00013be8       _lseeki64                  0000000180014be8 f   LIBCMT:lseeki64.obj
 0001:00013cd0       _lseeki64_nolock           0000000180014cd0 f   LIBCMT:lseeki64.obj
 0001:00013d64       _getbuf                    0000000180014d64 f   LIBCMT:_getbuf.obj
 0001:00013db8       _isctype_l                 0000000180014db8 f   LIBCMT:isctype.obj
 0001:00013e94       calloc                     0000000180014e94 f   LIBCMT:calloc.obj
 0001:00014050       __crtGetStringTypeA        0000000180015050 f   LIBCMT:a_str.obj
 0001:000140e0       _alloca_probe              00000001800150e0 f   LIBCMT:chkstk.obj
 0001:000140e0       __chkstk                   00000001800150e0 f   LIBCMT:chkstk.obj
 0001:00014130       realloc                    0000000180015130 f   LIBCMT:realloc.obj
 0001:00014204       _calloc_impl               0000000180015204 f   LIBCMT:calloc_impl.obj
 0001:000142a0       _mbstowcs_l_helper         00000001800152a0 f   LIBCMT:mbstowcs.obj
 0001:0001447c       _mbstowcs_s_l              000000018001547c f   LIBCMT:mbstowcs.obj
 0001:000145ac       mbstowcs_s                 00000001800155ac f   LIBCMT:mbstowcs.obj
 0001:000145cc       _wcstombs_l_helper         00000001800155cc f   LIBCMT:wcstombs.obj
 0001:000148fc       _wcstombs_s_l              00000001800158fc f   LIBCMT:wcstombs.obj
 0001:000149e8       _wcsicmp                   00000001800159e8 f   LIBCMT:wcsicmp.obj
 0001:00014a6c       _wcsicmp_l                 0000000180015a6c f   LIBCMT:wcsicmp.obj
 0001:00014b5c       _isleadbyte_l              0000000180015b5c f i LIBCMT:_wctype.obj
 0001:00014ba0       isleadbyte                 0000000180015ba0 f i LIBCMT:_wctype.obj
 0001:00014be8       wcsnlen                    0000000180015be8 f   LIBCMT:wcslen_s.obj
 0001:00014c08       _woutput_l                 0000000180015c08 f   LIBCMT:woutput.obj
 0001:000157c8       wcsncpy_s                  00000001800167c8 f   LIBCMT:wcsncpy_s.obj
 0001:000158b0       _local_unwind              00000001800168b0 f   LIBCMT:jmpuwind.obj
 0001:000158e0       _NLG_Notify                00000001800168e0 f   LIBCMT:jmpuwind.obj
 0001:00015900       __NLG_Dispatch2            0000000180016900 f   LIBCMT:jmpuwind.obj
 0001:00015910       __NLG_Return2              0000000180016910 f   LIBCMT:jmpuwind.obj
 0001:00015914       strncpy_s                  0000000180016914 f   LIBCMT:strncpy_s.obj
 0001:00015b3c       __crtGetLocaleInfoA        0000000180016b3c f   LIBCMT:a_loc.obj
 0001:00015bc0       _get_fpsr                  0000000180016bc0 f   LIBCMT:fpsr.obj
 0001:00015bd0       _set_fpsr                  0000000180016bd0 f   LIBCMT:fpsr.obj
 0001:00015bda       _fclrf                     0000000180016bda f   LIBCMT:fpsr.obj
 0001:00015bee       _frnd                      0000000180016bee f   LIBCMT:fpsr.obj
 0001:00015c10       _fptrap                    0000000180016c10 f   LIBCMT:crt0fp.obj
 0001:00015c1c       _isatty                    0000000180016c1c f   LIBCMT:isatty.obj
 0001:00015c7c       __free_lconv_mon           0000000180016c7c f   LIBCMT:initmon.obj
 0001:00015d88       __init_monetary            0000000180016d88 f   LIBCMT:initmon.obj
 0001:00016288       __free_lconv_num           0000000180017288 f   LIBCMT:initnum.obj
 0001:000162f4       __init_numeric             00000001800172f4 f   LIBCMT:initnum.obj
 0001:000165bc       __free_lc_time             00000001800175bc f   LIBCMT:inittime.obj
 0001:000169b8       __init_time                00000001800179b8 f   LIBCMT:inittime.obj
 0001:000175d4       __init_collate             00000001800185d4 f   LIBCMT:initcoll.obj
 0001:000175d4       __init_dummy               00000001800185d4 f   LIBCMT:wsetloca.obj
 0001:000175d4       ?sync@?$basic_streambuf@DU?$char_traits@D@std@@@std@@MEAAHXZ 00000001800185d4 f   libcpmt:cerr.obj
 0001:000175d4       ?showmanyc@?$basic_streambuf@DU?$char_traits@D@std@@@std@@MEAA_JXZ 00000001800185d4 f   libcpmt:cerr.obj
 0001:000175d8       wcscmp                     00000001800185d8 f   LIBCMT:wcscmp.obj
 0001:00017614       wcscspn                    0000000180018614 f   LIBCMT:wcscspn.obj
 0001:00017654       wcsncmp                    0000000180018654 f   LIBCMT:wcsncmp.obj
 0001:00017680       wcspbrk                    0000000180018680 f   LIBCMT:wcspbrk.obj
 0001:00017d78       __get_qualified_locale     0000000180018d78 f   LIBCMT:getqloc.obj
 0001:000187a8       __get_qualified_locale_downlevel 00000001800197a8 f   LIBCMT:getqloc_downlevel.obj
 0001:00018a40       ?_ValidateWrite@@YAHPEAXI@Z 0000000180019a40 f   LIBCMT:validate.obj
 0001:00018a40       ?_ValidateExecute@@YAHP6A_JXZ@Z 0000000180019a40 f   LIBCMT:validate.obj
 0001:00018a40       ?_ValidateRead@@YAHPEBXI@Z 0000000180019a40 f   LIBCMT:validate.obj
 0001:00018a60       _CallSettingFrame          0000000180019a60 f   LIBCMT:handlers.obj
 0001:00018aa0       _GetNextInstrOffset        0000000180019aa0 f   LIBCMT:handlers.obj
 0001:00018aa8       strrchr                    0000000180019aa8 f   LIBCMT:strrchr.obj
 0001:00018bec       _fptostr                   0000000180019bec f   LIBCMT:_fptostr.obj
 0001:00018cb8       __crt_atoflt_l             0000000180019cb8 f   LIBCMT:atodbl.obj
 0001:00018d88       _atodbl_l                  0000000180019d88 f   LIBCMT:atodbl.obj
 0001:00018e50       _atoflt_l                  0000000180019e50 f   LIBCMT:atodbl.obj
 0001:00018e58       __dtold                    0000000180019e58 f   LIBCMT:cfout.obj
 0001:00018f28       _fltout2                   0000000180019f28 f   LIBCMT:cfout.obj
 0001:00018fe0       __lock_fhandle             0000000180019fe0 f   LIBCMT:osfinfo.obj
 0001:00019078       _free_osfhnd               000000018001a078 f   LIBCMT:osfinfo.obj
 0001:00019124       _get_osfhandle             000000018001a124 f   LIBCMT:osfinfo.obj
 0001:00019198       _unlock_fhandle            000000018001a198 f   LIBCMT:osfinfo.obj
 0001:000191c4       _mbtowc_l                  000000018001a1c4 f   LIBCMT:mbtowc.obj
 0001:00019318       mbtowc                     000000018001a318 f   LIBCMT:mbtowc.obj
 0001:00019320       _putwch_nolock             000000018001a320 f   LIBCMT:putwch.obj
 0001:0001937c       _read                      000000018001a37c f   LIBCMT:read.obj
 0001:00019498       _read_nolock               000000018001a498 f   LIBCMT:read.obj
 0001:00019d08       _get_printf_count_output   000000018001ad08 f   LIBCMT:printf.obj
 0001:00019d20       _wctomb_s_l                000000018001ad20 f   LIBCMT:wctomb.obj
 0001:00019eac       wctomb_s                   000000018001aeac f   LIBCMT:wctomb.obj
 0001:00019ec0       _towlower_l                000000018001aec0 f   LIBCMT:towlower.obj
 0001:00019f8c       iswctype                   000000018001af8c f   LIBCMT:iswctype.obj
 0001:00019ff4       _fputwc_nolock             000000018001aff4 f   LIBCMT:fputwc.obj
 0001:0001a3d0       wcstol                     000000018001b3d0 f   LIBCMT:wcstol.obj
 0001:0001a3d8       _wtol                      000000018001b3d8 f   LIBCMT:wtox.obj
 0001:0001a3e4       wcschr                     000000018001b3e4 f   LIBCMT:wcschr.obj
 0001:0001a470       _wcsnicmp                  000000018001b470 f   LIBCMT:wcsnicmp.obj
 0001:0001a508       _wcsnicmp_l                000000018001b508 f   LIBCMT:wcsnicmp.obj
 0001:0001a620       _ld12tod                   000000018001b620 f   LIBCMT:intrncvt.obj
 0001:0001abd8       _ld12tof                   000000018001bbd8 f   LIBCMT:intrncvt.obj
 0001:0001b190       __strgtold12_l             000000018001c190 f   LIBCMT:strgtold.obj
 0001:0001b9f4       $I10_OUTPUT                000000018001c9f4 f   LIBCMT:x10fout.obj
 0001:0001c4cc       __termconout               000000018001d4cc f   LIBCMT:initcon.obj
 0001:0001c4ec       __initconout               000000018001d4ec f   LIBCMT:initcon.obj
 0001:0001c528       _flswbuf                   000000018001d528 f   LIBCMT:_flswbuf.obj
 0001:0001c6b8       _wchartodigit              000000018001d6b8 f   LIBCMT:wchtodig.obj
 0001:0001c850       __mtold12                  000000018001d850 f   LIBCMT:mantold.obj
 0001:0001ca80       IsProcessorFeaturePresent  000000018001da80 f   kernel32:KERNEL32.dll
 0001:0001ca86       RtlUnwindEx                000000018001da86 f   kernel32:KERNEL32.dll
 0001:0001ca8c       __delayLoadHelper2         000000018001da8c f   DelayImp:delayhlp.obj
 0002:00000000       __imp_TlsGetValue          000000018001f000     kernel32:KERNEL32.dll
 0002:00000008       __imp_GetCurrentProcess    000000018001f008     kernel32:KERNEL32.dll
 0002:00000010       __imp_WaitForSingleObject  000000018001f010     kernel32:KERNEL32.dll
 0002:00000018       __imp_VirtualQueryEx       000000018001f018     kernel32:KERNEL32.dll
 0002:00000020       __imp_TlsSetValue          000000018001f020     kernel32:KERNEL32.dll
 0002:00000028       __imp_TlsAlloc             000000018001f028     kernel32:KERNEL32.dll
 0002:00000030       __imp_CreateThread         000000018001f030     kernel32:KERNEL32.dll
 0002:00000038       __imp_CreateFiber          000000018001f038     kernel32:KERNEL32.dll
 0002:00000040       __imp_ConvertThreadToFiber 000000018001f040     kernel32:KERNEL32.dll
 0002:00000048       __imp_SwitchToFiber        000000018001f048     kernel32:KERNEL32.dll
 0002:00000050       __imp_DeleteFiber          000000018001f050     kernel32:KERNEL32.dll
 0002:00000058       __imp_GetModuleHandleA     000000018001f058     kernel32:KERNEL32.dll
 0002:00000060       __imp_EncodePointer        000000018001f060     kernel32:KERNEL32.dll
 0002:00000068       __imp_DecodePointer        000000018001f068     kernel32:KERNEL32.dll
 0002:00000070       __imp_EnterCriticalSection 000000018001f070     kernel32:KERNEL32.dll
 0002:00000078       __imp_LeaveCriticalSection 000000018001f078     kernel32:KERNEL32.dll
 0002:00000080       __imp_DeleteCriticalSection 000000018001f080     kernel32:KERNEL32.dll
 0002:00000088       __imp_WideCharToMultiByte  000000018001f088     kernel32:KERNEL32.dll
 0002:00000090       __imp_MultiByteToWideChar  000000018001f090     kernel32:KERNEL32.dll
 0002:00000098       __imp_GetStringTypeW       000000018001f098     kernel32:KERNEL32.dll
 0002:000000a0       __imp_IsDebuggerPresent    000000018001f0a0     kernel32:KERNEL32.dll
 0002:000000a8       __imp_IsProcessorFeaturePresent 000000018001f0a8     kernel32:KERNEL32.dll
 0002:000000b0       __imp_GetStdHandle         000000018001f0b0     kernel32:KERNEL32.dll
 0002:000000b8       __imp_GetFileType          000000018001f0b8     kernel32:KERNEL32.dll
 0002:000000c0       __imp_GetModuleFileNameW   000000018001f0c0     kernel32:KERNEL32.dll
 0002:000000c8       __imp_GetModuleHandleExW   000000018001f0c8     kernel32:KERNEL32.dll
 0002:000000d0       __imp_WriteConsoleW        000000018001f0d0     kernel32:KERNEL32.dll
 0002:000000d8       __imp_GetLastError         000000018001f0d8     kernel32:KERNEL32.dll
 0002:000000e0       __imp_ExitProcess          000000018001f0e0     kernel32:KERNEL32.dll
 0002:000000e8       __imp_GetProcAddress       000000018001f0e8     kernel32:KERNEL32.dll
 0002:000000f0       __imp_GetCommandLineA      000000018001f0f0     kernel32:KERNEL32.dll
 0002:000000f8       __imp_GetCurrentThreadId   000000018001f0f8     kernel32:KERNEL32.dll
 0002:00000100       __imp_RtlPcToFileHeader    000000018001f100     kernel32:KERNEL32.dll
 0002:00000108       __imp_RaiseException       000000018001f108     kernel32:KERNEL32.dll
 0002:00000110       __imp_RtlLookupFunctionEntry 000000018001f110     kernel32:KERNEL32.dll
 0002:00000118       __imp_RtlUnwindEx          000000018001f118     kernel32:KERNEL32.dll
 0002:00000120       __imp_HeapFree             000000018001f120     kernel32:KERNEL32.dll
 0002:00000128       __imp_GetCPInfo            000000018001f128     kernel32:KERNEL32.dll
 0002:00000130       __imp_HeapAlloc            000000018001f130     kernel32:KERNEL32.dll
 0002:00000138       __imp_RtlCaptureContext    000000018001f138     kernel32:KERNEL32.dll
 0002:00000140       __imp_RtlVirtualUnwind     000000018001f140     kernel32:KERNEL32.dll
 0002:00000148       __imp_UnhandledExceptionFilter 000000018001f148     kernel32:KERNEL32.dll
 0002:00000150       __imp_SetUnhandledExceptionFilter 000000018001f150     kernel32:KERNEL32.dll
 0002:00000158       __imp_SetLastError         000000018001f158     kernel32:KERNEL32.dll
 0002:00000160       __imp_InitializeCriticalSectionAndSpinCount 000000018001f160     kernel32:KERNEL32.dll
 0002:00000168       __imp_Sleep                000000018001f168     kernel32:KERNEL32.dll
 0002:00000170       __imp_TerminateProcess     000000018001f170     kernel32:KERNEL32.dll
 0002:00000178       __imp_TlsFree              000000018001f178     kernel32:KERNEL32.dll
 0002:00000180       __imp_GetStartupInfoW      000000018001f180     kernel32:KERNEL32.dll
 0002:00000188       __imp_GetModuleHandleW     000000018001f188     kernel32:KERNEL32.dll
 0002:00000190       __imp_LCMapStringW         000000018001f190     kernel32:KERNEL32.dll
 0002:00000198       __imp_GetLocaleInfoW       000000018001f198     kernel32:KERNEL32.dll
 0002:000001a0       __imp_IsValidLocale        000000018001f1a0     kernel32:KERNEL32.dll
 0002:000001a8       __imp_GetUserDefaultLCID   000000018001f1a8     kernel32:KERNEL32.dll
 0002:000001b0       __imp_EnumSystemLocalesW   000000018001f1b0     kernel32:KERNEL32.dll
 0002:000001b8       __imp_OutputDebugStringW   000000018001f1b8     kernel32:KERNEL32.dll
 0002:000001c0       __imp_LoadLibraryExW       000000018001f1c0     kernel32:KERNEL32.dll
 0002:000001c8       __imp_WriteFile            000000018001f1c8     kernel32:KERNEL32.dll
 0002:000001d0       __imp_HeapSize             000000018001f1d0     kernel32:KERNEL32.dll
 0002:000001d8       __imp_FreeLibrary          000000018001f1d8     kernel32:KERNEL32.dll
 0002:000001e0       __imp_IsValidCodePage      000000018001f1e0     kernel32:KERNEL32.dll
 0002:000001e8       __imp_GetACP               000000018001f1e8     kernel32:KERNEL32.dll
 0002:000001f0       __imp_GetOEMCP             000000018001f1f0     kernel32:KERNEL32.dll
 0002:000001f8       __imp_GetProcessHeap       000000018001f1f8     kernel32:KERNEL32.dll
 0002:00000200       __imp_GetModuleFileNameA   000000018001f200     kernel32:KERNEL32.dll
 0002:00000208       __imp_QueryPerformanceCounter 000000018001f208     kernel32:KERNEL32.dll
 0002:00000210       __imp_GetCurrentProcessId  000000018001f210     kernel32:KERNEL32.dll
 0002:00000218       __imp_GetSystemTimeAsFileTime 000000018001f218     kernel32:KERNEL32.dll
 0002:00000220       __imp_GetEnvironmentStringsW 000000018001f220     kernel32:KERNEL32.dll
 0002:00000228       __imp_FreeEnvironmentStringsW 000000018001f228     kernel32:KERNEL32.dll
 0002:00000230       __imp_CloseHandle          000000018001f230     kernel32:KERNEL32.dll
 0002:00000238       __imp_FlushFileBuffers     000000018001f238     kernel32:KERNEL32.dll
 0002:00000240       __imp_GetConsoleCP         000000018001f240     kernel32:KERNEL32.dll
 0002:00000248       __imp_GetConsoleMode       000000018001f248     kernel32:KERNEL32.dll
 0002:00000250       __imp_ReadFile             000000018001f250     kernel32:KERNEL32.dll
 0002:00000258       __imp_SetFilePointerEx     000000018001f258     kernel32:KERNEL32.dll
 0002:00000260       __imp_HeapReAlloc          000000018001f260     kernel32:KERNEL32.dll
 0002:00000268       __imp_SetStdHandle         000000018001f268     kernel32:KERNEL32.dll
 0002:00000270       __imp_ReadConsoleW         000000018001f270     kernel32:KERNEL32.dll
 0002:00000278       __imp_CreateFileW          000000018001f278     kernel32:KERNEL32.dll
 0002:00000280       __imp_LoadLibraryExA       000000018001f280     kernel32:KERNEL32.dll
 0002:00000288       \177KERNEL32_NULL_THUNK_DATA 000000018001f288     kernel32:KERNEL32.dll
 0002:00000290       __xc_a                     000000018001f290     LIBCMT:crt0init.obj
 0002:00000330       _register_fibers_          000000018001f330     fibers.obj
 0002:00000338       __xc_z                     000000018001f338     LIBCMT:crt0init.obj
 0002:00000340       __xi_a                     000000018001f340     LIBCMT:crt0init.obj
 0002:00000368       __xi_z                     000000018001f368     LIBCMT:crt0init.obj
 0002:00000370       __xp_a                     000000018001f370     LIBCMT:crt0init.obj
 0002:00000390       __xp_z                     000000018001f390     LIBCMT:crt0init.obj
 0002:00000398       __xt_a                     000000018001f398     LIBCMT:crt0init.obj
 0002:000003a0       __xt_z                     000000018001f3a0     LIBCMT:crt0init.obj
 0002:000003f0       __sz_node_exe              000000018001f3f0     node:node.exe
 0002:00000da0       ??_C@_0BC@CIJDGCDI@permission?5denied?$AA@ 000000018001fda0     libcpmt:syserror.obj
 0002:00000db8       ??_C@_0M@MIDIAGJP@file?5exists?$AA@ 000000018001fdb8     libcpmt:syserror.obj
 0002:00000dc8       ??_C@_0P@FDINDDOK@no?5such?5device?$AA@ 000000018001fdc8     libcpmt:syserror.obj
 0002:00000dd8       ??_C@_0BC@EJHOMAAK@filename?5too?5long?$AA@ 000000018001fdd8     libcpmt:syserror.obj
 0002:00000df0       ??_C@_0BI@NGCEHDD@device?5or?5resource?5busy?$AA@ 000000018001fdf0     libcpmt:syserror.obj
 0002:00000e08       ??_C@_08GLNPIFBN@io?5error?$AA@ 000000018001fe08     libcpmt:syserror.obj
 0002:00000e18       ??_C@_0BE@JIDOCPHM@directory?5not?5empty?$AA@ 000000018001fe18     libcpmt:syserror.obj
 0002:00000e30       ??_C@_0BB@FCMFBGOM@invalid?5argument?$AA@ 000000018001fe30     libcpmt:syserror.obj
 0002:00000e48       ??_C@_0BD@IJDJKDEA@no?5space?5on?5device?$AA@ 000000018001fe48     libcpmt:syserror.obj
 0002:00000e60       ??_C@_0BK@NDOCBPGE@no?5such?5file?5or?5directory?$AA@ 000000018001fe60     libcpmt:syserror.obj
 0002:00000e80       ??_C@_0BH@KEFGLDAF@function?5not?5supported?$AA@ 000000018001fe80     libcpmt:syserror.obj
 0002:00000e98       ??_C@_0BC@NJECKMKE@no?5lock?5available?$AA@ 000000018001fe98     libcpmt:syserror.obj
 0002:00000eb0       ??_C@_0BC@ENOOLCNF@not?5enough?5memory?$AA@ 000000018001feb0     libcpmt:syserror.obj
 0002:00000ec8       ??_C@_0BP@LKNGHENJ@resource?5unavailable?5try?5again?$AA@ 000000018001fec8     libcpmt:syserror.obj
 0002:00000ee8       ??_C@_0BC@PPHBOELF@cross?5device?5link?$AA@ 000000018001fee8     libcpmt:syserror.obj
 0002:00000f00       ??_C@_0BD@MOLBPMEA@operation?5canceled?$AA@ 000000018001ff00     libcpmt:syserror.obj
 0002:00000f18       ??_C@_0BE@GHAFMPAH@too?5many?5files?5open?$AA@ 000000018001ff18     libcpmt:syserror.obj
 0002:00000f30       ??_C@_0BC@FNODOBAE@permission_denied?$AA@ 000000018001ff30     libcpmt:syserror.obj
 0002:00000f48       ??_C@_0P@LNDJPBFK@address_in_use?$AA@ 000000018001ff48     libcpmt:syserror.obj
 0002:00000f58       ??_C@_0BG@IPMGOJF@address_not_available?$AA@ 000000018001ff58     libcpmt:syserror.obj
 0002:00000f70       ??_C@_0BN@LCBDHODA@address_family_not_supported?$AA@ 000000018001ff70     libcpmt:syserror.obj
 0002:00000f90       ??_C@_0BP@FOJJHMCC@connection_already_in_progress?$AA@ 000000018001ff90     libcpmt:syserror.obj
 0002:00000fb0       ??_C@_0BE@DLHHIBGN@bad_file_descriptor?$AA@ 000000018001ffb0     libcpmt:syserror.obj
 0002:00000fc8       ??_C@_0BD@OJMJDIGI@connection_aborted?$AA@ 000000018001ffc8     libcpmt:syserror.obj
 0002:00000fe0       ??_C@_0BD@NGKCIFEP@connection_refused?$AA@ 000000018001ffe0     libcpmt:syserror.obj
 0002:00000ff8       ??_C@_0BB@JOANDNCK@connection_reset?$AA@ 000000018001fff8     libcpmt:syserror.obj
 0002:00001010       ??_C@_0BN@JLJNLKLK@destination_address_required?$AA@ 0000000180020010     libcpmt:syserror.obj
 0002:00001030       ??_C@_0M@IJGMGFGP@bad_address?$AA@ 0000000180020030     libcpmt:syserror.obj
 0002:00001040       ??_C@_0BB@KKNHPPIN@host_unreachable?$AA@ 0000000180020040     libcpmt:syserror.obj
 0002:00001058       ??_C@_0BG@DJGBJIIK@operation_in_progress?$AA@ 0000000180020058     libcpmt:syserror.obj
 0002:00001070       ??_C@_0M@EGEKIIMP@interrupted?$AA@ 0000000180020070     libcpmt:syserror.obj
 0002:00001080       ??_C@_0BB@FFIHMIPJ@invalid_argument?$AA@ 0000000180020080     libcpmt:syserror.obj
 0002:00001098       ??_C@_0BC@FIFLCHLO@already_connected?$AA@ 0000000180020098     libcpmt:syserror.obj
 0002:000010b0       ??_C@_0BE@GJJJJDDA@too_many_files_open?$AA@ 00000001800200b0     libcpmt:syserror.obj
 0002:000010c8       ??_C@_0N@HPMLKHPL@message_size?$AA@ 00000001800200c8     libcpmt:syserror.obj
 0002:000010d8       ??_C@_0BC@LEEIKBAL@filename_too_long?$AA@ 00000001800200d8     libcpmt:syserror.obj
 0002:000010f0       ??_C@_0N@FCPALPJK@network_down?$AA@ 00000001800200f0     libcpmt:syserror.obj
 0002:00001100       ??_C@_0O@EHNDLHIG@network_reset?$AA@ 0000000180020100     libcpmt:syserror.obj
 0002:00001110       ??_C@_0BE@JFNJIDNF@network_unreachable?$AA@ 0000000180020110     libcpmt:syserror.obj
 0002:00001128       ??_C@_0BA@FDIJKJCL@no_buffer_space?$AA@ 0000000180020128     libcpmt:syserror.obj
 0002:00001138       ??_C@_0BD@JHIHCGKP@no_protocol_option?$AA@ 0000000180020138     libcpmt:syserror.obj
 0002:00001150       ??_C@_0O@GBCLHHD@not_connected?$AA@ 0000000180020150     libcpmt:syserror.obj
 0002:00001160       ??_C@_0N@IMHKKLEM@not_a_socket?$AA@ 0000000180020160     libcpmt:syserror.obj
 0002:00001170       ??_C@_0BI@ICEIDKLJ@operation_not_supported?$AA@ 0000000180020170     libcpmt:syserror.obj
 0002:00001188       ??_C@_0BH@KAPBAIJF@protocol_not_supported?$AA@ 0000000180020188     libcpmt:syserror.obj
 0002:000011a0       ??_C@_0BE@GAOJJFPC@wrong_protocol_type?$AA@ 00000001800201a0     libcpmt:syserror.obj
 0002:000011b8       ??_C@_09NCHNLHPG@timed_out?$AA@ 00000001800201b8     libcpmt:syserror.obj
 0002:000011c8       ??_C@_0BG@GDGHKFDH@operation_would_block?$AA@ 00000001800201c8     libcpmt:syserror.obj
 0002:000011e0       ??_C@_0BN@LKKBCCDB@address?5family?5not?5supported?$AA@ 00000001800201e0     libcpmt:syserror.obj
 0002:00001200       ??_C@_0P@LDMLAFHI@address?5in?5use?$AA@ 0000000180020200     libcpmt:syserror.obj
 0002:00001210       ??_C@_0BG@DHPCNBJB@address?5not?5available?$AA@ 0000000180020210     libcpmt:syserror.obj
 0002:00001228       ??_C@_0BC@DFIBIBIL@already?5connected?$AA@ 0000000180020228     libcpmt:syserror.obj
 0002:00001240       ??_C@_0BH@CAKOHOMI@argument?5list?5too?5long?$AA@ 0000000180020240     libcpmt:syserror.obj
 0002:00001258       ??_C@_0BH@CGIMPKIM@argument?5out?5of?5domain?$AA@ 0000000180020258     libcpmt:syserror.obj
 0002:00001270       ??_C@_0M@KGHGGJGL@bad?5address?$AA@ 0000000180020270     libcpmt:syserror.obj
 0002:00001280       ??_C@_0BE@MPJPGCEO@bad?5file?5descriptor?$AA@ 0000000180020280     libcpmt:syserror.obj
 0002:00001298       ??_C@_0M@PMMIEFCP@bad?5message?$AA@ 0000000180020298     libcpmt:syserror.obj
 0002:000012a8       ??_C@_0M@KPHOFDBE@broken?5pipe?$AA@ 00000001800202a8     libcpmt:syserror.obj
 0002:000012b8       ??_C@_0BD@MGNDDEGM@connection?5aborted?$AA@ 00000001800202b8     libcpmt:syserror.obj
 0002:000012d0       ??_C@_0BP@KAIHPOGN@connection?5already?5in?5progress?$AA@ 00000001800202d0     libcpmt:syserror.obj
 0002:000012f0       ??_C@_0BD@PJLIIJEL@connection?5refused?$AA@ 00000001800202f0     libcpmt:syserror.obj
 0002:00001308       ??_C@_0BB@IECNJNOI@connection?5reset?$AA@ 0000000180020308     libcpmt:syserror.obj
 0002:00001320       ??_C@_0BN@KDMIFEIP@destination?5address?5required?$AA@ 0000000180020320     libcpmt:syserror.obj
 0002:00001340       ??_C@_0BI@BNCLIGPB@executable?5format?5error?$AA@ 0000000180020340     libcpmt:syserror.obj
 0002:00001358       ??_C@_0P@DNAJLBJK@file?5too?5large?$AA@ 0000000180020358     libcpmt:syserror.obj
 0002:00001368       ??_C@_0BB@DHFDFGDM@host?5unreachable?$AA@ 0000000180020368     libcpmt:syserror.obj
 0002:00001380       ??_C@_0BD@JPHBMONG@identifier?5removed?$AA@ 0000000180020380     libcpmt:syserror.obj
 0002:00001398       ??_C@_0BG@CDNPAGJK@illegal?5byte?5sequence?$AA@ 0000000180020398     libcpmt:syserror.obj
 0002:000013b0       ??_C@_0CD@BNPLBMNA@inappropriate?5io?5control?5operati@ 00000001800203b0     libcpmt:syserror.obj
 0002:000013d8       ??_C@_0N@OHAFKDEK@invalid?5seek?$AA@ 00000001800203d8     libcpmt:syserror.obj
 0002:000013e8       ??_C@_0P@FLLDBIDK@is?5a?5directory?$AA@ 00000001800203e8     libcpmt:syserror.obj
 0002:000013f8       ??_C@_0N@IFLPBIOP@message?5size?$AA@ 00000001800203f8     libcpmt:syserror.obj
 0002:00001408       ??_C@_0N@KIIEAAIO@network?5down?$AA@ 0000000180020408     libcpmt:syserror.obj
 0002:00001418       ??_C@_0O@FNPDBHEE@network?5reset?$AA@ 0000000180020418     libcpmt:syserror.obj
 0002:00001428       ??_C@_0BE@IFNCKGE@network?5unreachable?$AA@ 0000000180020428     libcpmt:syserror.obj
 0002:00001440       ??_C@_0BA@PFFCAOFK@no?5buffer?5space?$AA@ 0000000180020440     libcpmt:syserror.obj
 0002:00001450       ??_C@_0BB@IEPBLJHK@no?5child?5process?$AA@ 0000000180020450     libcpmt:syserror.obj
 0002:00001468       ??_C@_07PLECNNKG@no?5link?$AA@ 0000000180020468     libcpmt:syserror.obj
 0002:00001470       ??_C@_0BF@PBGGPKKE@no?5message?5available?$AA@ 0000000180020470     libcpmt:syserror.obj
 0002:00001488       ??_C@_0L@EDOLMPAK@no?5message?$AA@ 0000000180020488     libcpmt:syserror.obj
 0002:00001498       ??_C@_0BD@EAMBFIDF@no?5protocol?5option?$AA@ 0000000180020498     libcpmt:syserror.obj
 0002:000014b0       ??_C@_0BE@MKFDAFMP@no?5stream?5resources?$AA@ 00000001800204b0     libcpmt:syserror.obj
 0002:000014c8       ??_C@_0BK@IMCPHCBI@no?5such?5device?5or?5address?$AA@ 00000001800204c8     libcpmt:syserror.obj
 0002:000014e8       ??_C@_0BA@ENLPPKBN@no?5such?5process?$AA@ 00000001800204e8     libcpmt:syserror.obj
 0002:000014f8       ??_C@_0BA@DOCPFFJG@not?5a?5directory?$AA@ 00000001800204f8     libcpmt:syserror.obj
 0002:00001508       ??_C@_0N@POEIPGGF@not?5a?5socket?$AA@ 0000000180020508     libcpmt:syserror.obj
 0002:00001518       ??_C@_0N@LGAPMMPI@not?5a?5stream?$AA@ 0000000180020518     libcpmt:syserror.obj
 0002:00001528       ??_C@_0O@GLMIBBEG@not?5connected?$AA@ 0000000180020528     libcpmt:syserror.obj
 0002:00001538       ??_C@_0O@NHEDABJP@not?5supported?$AA@ 0000000180020538     libcpmt:syserror.obj
 0002:00001548       ??_C@_0BG@KDKHOPCO@operation?5in?5progress?$AA@ 0000000180020548     libcpmt:syserror.obj
 0002:00001560       ??_C@_0BI@OHIEJAAB@operation?5not?5permitted?$AA@ 0000000180020560     libcpmt:syserror.obj
 0002:00001578       ??_C@_0BI@LNEGIFLN@operation?5not?5supported?$AA@ 0000000180020578     libcpmt:syserror.obj
 0002:00001590       ??_C@_0BG@OEMDKMEE@operation?5would?5block?$AA@ 0000000180020590     libcpmt:syserror.obj
 0002:000015a8       ??_C@_0L@BLPOFLNJ@owner?5dead?$AA@ 00000001800205a8     libcpmt:syserror.obj
 0002:000015b8       ??_C@_0P@FNPOCJBE@protocol?5error?$AA@ 00000001800205b8     libcpmt:syserror.obj
 0002:000015c8       ??_C@_0BH@JPPPLHJB@protocol?5not?5supported?$AA@ 00000001800205c8     libcpmt:syserror.obj
 0002:000015e0       ??_C@_0BG@EICBIHDP@read?5only?5file?5system?$AA@ 00000001800205e0     libcpmt:syserror.obj
 0002:000015f8       ??_C@_0BO@BJBOMOEJ@resource?5deadlock?5would?5occur?$AA@ 00000001800205f8     libcpmt:syserror.obj
 0002:00001618       ??_C@_0BE@GOIPJJHG@result?5out?5of?5range?$AA@ 0000000180020618     libcpmt:syserror.obj
 0002:00001630       ??_C@_0BG@MPLKFPAE@state?5not?5recoverable?$AA@ 0000000180020630     libcpmt:syserror.obj
 0002:00001648       ??_C@_0P@DIIFGFCG@stream?5timeout?$AA@ 0000000180020648     libcpmt:syserror.obj
 0002:00001658       ??_C@_0P@IPFDMIFL@text?5file?5busy?$AA@ 0000000180020658     libcpmt:syserror.obj
 0002:00001668       ??_C@_09KJPPMAOI@timed?5out?$AA@ 0000000180020668     libcpmt:syserror.obj
 0002:00001678       ??_C@_0BO@HACHBEKI@too?5many?5files?5open?5in?5system?$AA@ 0000000180020678     libcpmt:syserror.obj
 0002:00001698       ??_C@_0P@HCOMKFCC@too?5many?5links?$AA@ 0000000180020698     libcpmt:syserror.obj
 0002:000016a8       ??_C@_0BO@EFGOJEF@too?5many?5symbolic?5link?5levels?$AA@ 00000001800206a8     libcpmt:syserror.obj
 0002:000016c8       ??_C@_0BA@KGKGOOJA@value?5too?5large?$AA@ 00000001800206c8     libcpmt:syserror.obj
 0002:000016d8       ??_C@_0BE@MIEJDDNH@wrong?5protocol?5type?$AA@ 00000001800206d8     libcpmt:syserror.obj
 0002:000016f8       ??_7bad_alloc@std@@6B@     00000001800206f8     libcpmt:xthrow.obj
 0002:00001708       ??_C@_0P@GHFPNOJB@bad?5allocation?$AA@ 0000000180020708     libcpmt:xthrow.obj
 0002:00001720       ??_7logic_error@std@@6B@   0000000180020720     libcpmt:xthrow.obj
 0002:00001738       ??_7length_error@std@@6B@  0000000180020738     libcpmt:xthrow.obj
 0002:00001750       ??_7out_of_range@std@@6B@  0000000180020750     libcpmt:xthrow.obj
 0002:00001768       ??_7runtime_error@std@@6B@ 0000000180020768     libcpmt:xthrow.obj
 0002:00001908       ??_C@_0BA@ELKIONDK@bad?5locale?5name?$AA@ 0000000180020908     libcpmt:cerr.obj
 0002:00001920       ??_7_Facet_base@std@@6B@   0000000180020920     libcpmt:cerr.obj
 0002:00001938       ??_C@_00CNPNBAHC@?$AA@     0000000180020938     libcpmt:cerr.obj
 0002:00001948       ??_7?$ctype@D@std@@6B@     0000000180020948     libcpmt:cerr.obj
 0002:000019a8       ??_7_System_error@std@@6B@ 00000001800209a8     libcpmt:cerr.obj
 0002:000019c0       ??_7failure@ios_base@std@@6B@ 00000001800209c0     libcpmt:cerr.obj
 0002:000019d8       ??_7ios_base@std@@6B@      00000001800209d8     libcpmt:cerr.obj
 0002:000019e8       ??_7?$basic_ios@DU?$char_traits@D@std@@@std@@6B@ 00000001800209e8     libcpmt:cerr.obj
 0002:000019f8       ??_7?$basic_streambuf@DU?$char_traits@D@std@@@std@@6B@ 00000001800209f8     libcpmt:cerr.obj
 0002:00001a78       ??_7?$basic_ostream@DU?$char_traits@D@std@@@std@@6B@ 0000000180020a78     libcpmt:cerr.obj
 0002:00001a80       ??_8?$basic_ostream@DU?$char_traits@D@std@@@std@@7B@ 0000000180020a80     libcpmt:cerr.obj
 0002:00001a90       ??_7?$basic_filebuf@DU?$char_traits@D@std@@@std@@6B@ 0000000180020a90     libcpmt:cerr.obj
 0002:00001b10       ??_7?$codecvt@DDH@std@@6B@ 0000000180020b10     libcpmt:cerr.obj
 0002:00001b60       ??_C@_08EPJLHIJG@bad?5cast?$AA@ 0000000180020b60     libcpmt:cerr.obj
 0002:00001bc8       ??_7_Locimp@locale@std@@6B@ 0000000180020bc8     libcpmt:locale0.obj
 0002:00001be0       ??_C@_01NBENCBCI@?$CK?$AA@ 0000000180020be0     libcpmt:locale0.obj
 0002:00001be4       ??_C@_01GFHCPBMG@C?$AA@    0000000180020be4     libcpmt:locale0.obj
 0002:00001be8       ?_BADOFF@std@@3_JB         0000000180020be8     libcpmt:ios.obj
 0002:00001bf0       ??_C@_11LOCGONAA@?$AA?$AA@ 0000000180020bf0     libcpmt:wlocale.obj
 0002:00001bf4       ??_C@_01JOAMLHOP@?9?$AA@   0000000180020bf4     libcpmt:wlocale.obj
 0002:00001cd8       __real@0000000000000000    0000000180020cd8     libcpmt:xprec.obj
 0002:00001d80       ??_C@_17LGKOMLJ@?$AA?4?$AA?4?$AA?4?$AA?$AA@ 0000000180020d80     LIBCMT:wassert.obj
 0002:00001d88       ??_C@_13LBAGMAIH@?$AA?6?$AA?$AA@ 0000000180020d88     LIBCMT:wassert.obj
 0002:00001d8c       ??_C@_15IABLJNFO@?$AA?6?$AA?6?$AA?$AA@ 0000000180020d8c     LIBCMT:wassert.obj
 0002:00001d98       ??_C@_1CE@OJBNHDMO@?$AAA?$AAs?$AAs?$AAe?$AAr?$AAt?$AAi?$AAo?$AAn?$AA?5?$AAf?$AAa?$AAi?$AAl?$AAe?$AAd?$AA?$CB?$AA?$AA@ 0000000180020d98     LIBCMT:wassert.obj
 0002:00001dc0       ??_C@_1BE@PHKBBGE@?$AAP?$AAr?$AAo?$AAg?$AAr?$AAa?$AAm?$AA?3?$AA?5?$AA?$AA@ 0000000180020dc0     LIBCMT:wassert.obj
 0002:00001dd8       ??_C@_1CO@EAEJAADC@?$AA?$DM?$AAp?$AAr?$AAo?$AAg?$AAr?$AAa?$AAm?$AA?5?$AAn?$AAa?$AAm?$AAe?$AA?5?$AAu?$AAn?$AAk?$AAn?$AAo?$AAw?$AAn?$AA?$DO?$AA?$AA@ 0000000180020dd8     LIBCMT:wassert.obj
 0002:00001e08       ??_C@_1O@HEMHKNDC@?$AAF?$AAi?$AAl?$AAe?$AA?3?$AA?5?$AA?$AA@ 0000000180020e08     LIBCMT:wassert.obj
 0002:00001e18       ??_C@_1O@KCAFKHJE@?$AAL?$AAi?$AAn?$AAe?$AA?3?$AA?5?$AA?$AA@ 0000000180020e18     LIBCMT:wassert.obj
 0002:00001e28       ??_C@_1BK@PEDCIPMA@?$AAE?$AAx?$AAp?$AAr?$AAe?$AAs?$AAs?$AAi?$AAo?$AAn?$AA?3?$AA?5?$AA?$AA@ 0000000180020e28     LIBCMT:wassert.obj
 0002:00001e50       ??_C@_1OA@EGMLFBHJ@?$AAF?$AAo?$AAr?$AA?5?$AAi?$AAn?$AAf?$AAo?$AAr?$AAm?$AAa?$AAt?$AAi?$AAo?$AAn?$AA?5?$AAo?$AAn?$AA?5?$AAh?$AAo?$AAw?$AA?5?$AAy?$AAo?$AAu?$AAr?$AA?5?$AAp?$AAr?$AAo?$AAg@ 0000000180020e50     LIBCMT:wassert.obj
 0002:00001f30       ??_C@_1HK@POCJMFGK@?$AA?$CI?$AAP?$AAr?$AAe?$AAs?$AAs?$AA?5?$AAR?$AAe?$AAt?$AAr?$AAy?$AA?5?$AAt?$AAo?$AA?5?$AAd?$AAe?$AAb?$AAu?$AAg?$AA?5?$AAt?$AAh?$AAe?$AA?5?$AAa?$AAp?$AAp?$AAl?$AAi?$AAc@ 0000000180020f30     LIBCMT:wassert.obj
 0002:00001fb0       ??_C@_1EK@MBDPDCGA@?$AAM?$AAi?$AAc?$AAr?$AAo?$AAs?$AAo?$AAf?$AAt?$AA?5?$AAV?$AAi?$AAs?$AAu?$AAa?$AAl?$AA?5?$AAC?$AA?$CL?$AA?$CL?$AA?5?$AAR?$AAu?$AAn?$AAt?$AAi?$AAm?$AAe?$AA?5?$AAL?$AAi?$AAb@ 0000000180020fb0     LIBCMT:wassert.obj
 0002:00001ffc       ??_C@_06MEIMCGCF@_hypot?$AA@ 0000000180020ffc     LIBCMT:hypot.obj
 0002:00002008       ??_C@_1BI@BGOHAHKC@?$AAm?$AAs?$AAc?$AAo?$AAr?$AAe?$AAe?$AA?4?$AAd?$AAl?$AAl?$AA?$AA@ 0000000180021008     LIBCMT:crt0dat.obj
 0002:00002020       ??_C@_0P@MIGLKIOC@CorExitProcess?$AA@ 0000000180021020     LIBCMT:crt0dat.obj
 0002:00002030       _pRawDllMain               0000000180021030     LIBCMT:dllcrt0.obj
 0002:00002030       _pDefaultRawDllMain        0000000180021030     LIBCMT:dllcrt0.obj
 0002:00002120       ??_7type_info@@6B@         0000000180021120     LIBCMT:typinfo.obj
 0002:00002128       _FPinit                    0000000180021128     LIBCMT:fpinit.obj
 0002:00002138       ??_7exception@std@@6B@     0000000180021138     LIBCMT:stdexcpt.obj
 0002:00002148       ??_C@_0BC@EOODALEL@Unknown?5exception?$AA@ 0000000180021148     LIBCMT:stdexcpt.obj
 0002:00002168       ??_7bad_cast@std@@6B@      0000000180021168     LIBCMT:stdexcpt.obj
 0002:00002180       __newctype                 0000000180021180     LIBCMT:ctype.obj
 0002:00002480       _wctype                    0000000180021480     LIBCMT:ctype.obj
 0002:00002690       __newclmap                 0000000180021690     LIBCMT:ctype.obj
 0002:00002810       __newcumap                 0000000180021810     LIBCMT:ctype.obj
 0002:00002990       ??_C@_1BK@MGMFAEKH@?$AAk?$AAe?$AAr?$AAn?$AAe?$AAl?$AA3?$AA2?$AA?4?$AAd?$AAl?$AAl?$AA?$AA@ 0000000180021990     LIBCMT:winapisupp.obj
 0002:000029b0       ??_C@_08KNHFBNJ@FlsAlloc?$AA@ 00000001800219b0     LIBCMT:winapisupp.obj
 0002:000029c0       ??_C@_07PEJMOBNF@FlsFree?$AA@ 00000001800219c0     LIBCMT:winapisupp.obj
 0002:000029c8       ??_C@_0M@GDNOONDI@FlsGetValue?$AA@ 00000001800219c8     LIBCMT:winapisupp.obj
 0002:000029d8       ??_C@_0M@JCPCPOEF@FlsSetValue?$AA@ 00000001800219d8     LIBCMT:winapisupp.obj
 0002:000029e8       ??_C@_0BM@HCFOFFN@InitializeCriticalSectionEx?$AA@ 00000001800219e8     LIBCMT:winapisupp.obj
 0002:00002a08       ??_C@_0P@DLHPPCNH@CreateEventExW?$AA@ 0000000180021a08     LIBCMT:winapisupp.obj
 0002:00002a18       ??_C@_0BD@KIEEOEEH@CreateSemaphoreExW?$AA@ 0000000180021a18     LIBCMT:winapisupp.obj
 0002:00002a30       ??_C@_0BI@BKLFFAPO@SetThreadStackGuarantee?$AA@ 0000000180021a30     LIBCMT:winapisupp.obj
 0002:00002a48       ??_C@_0BG@OGFAJCKC@CreateThreadpoolTimer?$AA@ 0000000180021a48     LIBCMT:winapisupp.obj
 0002:00002a60       ??_C@_0BD@LPLEMMDI@SetThreadpoolTimer?$AA@ 0000000180021a60     LIBCMT:winapisupp.obj
 0002:00002a78       ??_C@_0CA@FMNJENH@WaitForThreadpoolTimerCallbacks?$AA@ 0000000180021a78     LIBCMT:winapisupp.obj
 0002:00002a98       ??_C@_0BF@DCFCCNOC@CloseThreadpoolTimer?$AA@ 0000000180021a98     LIBCMT:winapisupp.obj
 0002:00002ab0       ??_C@_0BF@FLABGKKM@CreateThreadpoolWait?$AA@ 0000000180021ab0     LIBCMT:winapisupp.obj
 0002:00002ac8       ??_C@_0BC@MGCOHNA@SetThreadpoolWait?$AA@ 0000000180021ac8     LIBCMT:winapisupp.obj
 0002:00002ae0       ??_C@_0BE@OCIOMIMP@CloseThreadpoolWait?$AA@ 0000000180021ae0     LIBCMT:winapisupp.obj
 0002:00002af8       ??_C@_0BJ@LKGHFHBO@FlushProcessWriteBuffers?$AA@ 0000000180021af8     LIBCMT:winapisupp.obj
 0002:00002b18       ??_C@_0BP@KALKKPMO@FreeLibraryWhenCallbackReturns?$AA@ 0000000180021b18     LIBCMT:winapisupp.obj
 0002:00002b38       ??_C@_0BK@DFNBACLA@GetCurrentProcessorNumber?$AA@ 0000000180021b38     LIBCMT:winapisupp.obj
 0002:00002b58       ??_C@_0BP@KHGALBC@GetLogicalProcessorInformation?$AA@ 0000000180021b58     LIBCMT:winapisupp.obj
 0002:00002b78       ??_C@_0BE@FKKLLFLM@CreateSymbolicLinkW?$AA@ 0000000180021b78     LIBCMT:winapisupp.obj
 0002:00002b90       ??_C@_0BJ@OHNKDLIJ@SetDefaultDllDirectories?$AA@ 0000000180021b90     LIBCMT:winapisupp.obj
 0002:00002bb0       ??_C@_0BE@LJANKFHF@EnumSystemLocalesEx?$AA@ 0000000180021bb0     LIBCMT:winapisupp.obj
 0002:00002bc8       ??_C@_0BA@IHGNDAEB@CompareStringEx?$AA@ 0000000180021bc8     LIBCMT:winapisupp.obj
 0002:00002bd8       ??_C@_0BA@EPCJIIPD@GetDateFormatEx?$AA@ 0000000180021bd8     LIBCMT:winapisupp.obj
 0002:00002be8       ??_C@_0BA@ONOKGCMP@GetLocaleInfoEx?$AA@ 0000000180021be8     LIBCMT:winapisupp.obj
 0002:00002bf8       ??_C@_0BA@CIJJKCJJ@GetTimeFormatEx?$AA@ 0000000180021bf8     LIBCMT:winapisupp.obj
 0002:00002c08       ??_C@_0BJ@PBCCBIPI@GetUserDefaultLocaleName?$AA@ 0000000180021c08     LIBCMT:winapisupp.obj
 0002:00002c28       ??_C@_0BC@CELBKLLA@IsValidLocaleName?$AA@ 0000000180021c28     LIBCMT:winapisupp.obj
 0002:00002c40       ??_C@_0O@KKBNKAPF@LCMapStringEx?$AA@ 0000000180021c40     LIBCMT:winapisupp.obj
 0002:00002c50       ??_C@_0BE@JOGNEJCI@GetCurrentPackageId?$AA@ 0000000180021c50     LIBCMT:winapisupp.obj
 0002:00002c68       ??_C@_0P@CDHHOHKP@GetTickCount64?$AA@ 0000000180021c68     LIBCMT:winapisupp.obj
 0002:00002c78       ??_C@_0BO@KPCLFDJJ@GetFileInformationByHandleExW?$AA@ 0000000180021c78     LIBCMT:winapisupp.obj
 0002:00002c98       ??_C@_0BM@MHIDLABK@SetFileInformationByHandleW?$AA@ 0000000180021c98     LIBCMT:winapisupp.obj
 0002:00002cc0       LcidToLocaleNameTable      0000000180021cc0     LIBCMT:winapinls.obj
 0002:00003b00       LocaleNameToIndexTable     0000000180022b00     LIBCMT:winapinls.obj
 0002:00004940       ??_C@_15EMKDOKLE@?$AAa?$AAr?$AA?$AA@ 0000000180023940     LIBCMT:winapinls.obj
 0002:00004948       ??_C@_15KNPADPLH@?$AAb?$AAg?$AA?$AA@ 0000000180023948     LIBCMT:winapinls.obj
 0002:00004950       ??_C@_15EDMHLDMO@?$AAc?$AAa?$AA?$AA@ 0000000180023950     LIBCMT:winapinls.obj
 0002:00004958       ??_C@_1O@BPEAJADD@?$AAz?$AAh?$AA?9?$AAC?$AAH?$AAS?$AA?$AA@ 0000000180023958     LIBCMT:winapinls.obj
 0002:00004968       ??_C@_15LJNHCMNK@?$AAc?$AAs?$AA?$AA@ 0000000180023968     LIBCMT:winapinls.obj
 0002:00004970       ??_C@_15FOMCIDHG@?$AAd?$AAa?$AA?$AA@ 0000000180023970     LIBCMT:winapinls.obj
 0002:00004978       ??_C@_15NBKABECB@?$AAd?$AAe?$AA?$AA@ 0000000180023978     LIBCMT:winapinls.obj
 0002:00004980       ??_C@_15GHPEIIAO@?$AAe?$AAl?$AA?$AA@ 0000000180023980     LIBCMT:winapinls.obj
 0002:00004988       ??_C@_15MNPNEAIF@?$AAe?$AAn?$AA?$AA@ 0000000180023988     LIBCMT:winapinls.obj
 0002:00004990       ??_C@_15GPIOMPMH@?$AAe?$AAs?$AA?$AA@ 0000000180023990     LIBCMT:winapinls.obj
 0002:00004998       ??_C@_15NGLOAKJC@?$AAf?$AAi?$AA?$AA@ 0000000180023998     LIBCMT:winapinls.obj
 0002:000049a0       ??_C@_15FBKGNKAM@?$AAf?$AAr?$AA?$AA@ 00000001800239a0     LIBCMT:winapinls.obj
 0002:000049a8       ??_C@_15KGGCNEFK@?$AAh?$AAe?$AA?$AA@ 00000001800239a8     LIBCMT:winapinls.obj
 0002:000049b0       ??_C@_15PGHLIDMF@?$AAh?$AAu?$AA?$AA@ 00000001800239b0     LIBCMT:winapinls.obj
 0002:000049b8       ??_C@_15BIEMAPLM@?$AAi?$AAs?$AA?$AA@ 00000001800239b8     LIBCMT:winapinls.obj
 0002:000049c0       ??_C@_15IFJLDHAF@?$AAi?$AAt?$AA?$AA@ 00000001800239c0     LIBCMT:winapinls.obj
 0002:000049c8       ??_C@_15GEMIOCAG@?$AAj?$AAa?$AA?$AA@ 00000001800239c8     LIBCMT:winapinls.obj
 0002:000049d0       ??_C@_15EPELEGJA@?$AAk?$AAo?$AA?$AA@ 00000001800239d0     LIBCMT:winapinls.obj
 0002:000049d8       ??_C@_15NDDHIMN@?$AAn?$AAl?$AA?$AA@ 00000001800239d8     LIBCMT:winapinls.obj
 0002:000049e0       ??_C@_15BPIGNHCD@?$AAn?$AAo?$AA?$AA@ 00000001800239e0     LIBCMT:winapinls.obj
 0002:000049e8       ??_C@_15DEOPBLCG@?$AAp?$AAl?$AA?$AA@ 00000001800239e8     LIBCMT:winapinls.obj
 0002:000049f0       ??_C@_15KBECGEFG@?$AAp?$AAt?$AA?$AA@ 00000001800239f0     LIBCMT:winapinls.obj
 0002:000049f8       ??_C@_15GLJCBFMD@?$AAr?$AAo?$AA?$AA@ 00000001800239f8     LIBCMT:winapinls.obj
 0002:00004a00       ??_C@_15FEDGKCDI@?$AAr?$AAu?$AA?$AA@ 0000000180023a00     LIBCMT:winapinls.obj
 0002:00004a08       ??_C@_15GLKMLLHM@?$AAh?$AAr?$AA?$AA@ 0000000180023a08     LIBCMT:winapinls.obj
 0002:00004a10       ??_C@_15CPKMFBDB@?$AAs?$AAk?$AA?$AA@ 0000000180023a10     LIBCMT:winapinls.obj
 0002:00004a18       ??_C@_15BAAIOGMK@?$AAs?$AAq?$AA?$AA@ 0000000180023a18     LIBCMT:winapinls.obj
 0002:00004a20       ??_C@_15INNPNOHD@?$AAs?$AAv?$AA?$AA@ 0000000180023a20     LIBCMT:winapinls.obj
 0002:00004a28       ??_C@_15CABMMOGH@?$AAt?$AAh?$AA?$AA@ 0000000180023a28     LIBCMT:winapinls.obj
 0002:00004a30       ??_C@_15BPLIHJJM@?$AAt?$AAr?$AA?$AA@ 0000000180023a30     LIBCMT:winapinls.obj
 0002:00004a38       ??_C@_15NEOEKKDJ@?$AAu?$AAr?$AA?$AA@ 0000000180023a38     LIBCMT:winapinls.obj
 0002:00004a40       ??_C@_15NFICGAJK@?$AAi?$AAd?$AA?$AA@ 0000000180023a40     LIBCMT:winapinls.obj
 0002:00004a48       ??_C@_15PJPFLCCM@?$AAu?$AAk?$AA?$AA@ 0000000180023a48     LIBCMT:winapinls.obj
 0002:00004a50       ??_C@_15HPJPHDM@?$AAb?$AAe?$AA?$AA@ 0000000180023a50     LIBCMT:winapinls.obj
 0002:00004a58       ??_C@_15LCHLGJII@?$AAs?$AAl?$AA?$AA@ 0000000180023a58     LIBCMT:winapinls.obj
 0002:00004a60       ??_C@_15PCFJPHHO@?$AAe?$AAt?$AA?$AA@ 0000000180023a60     LIBCMT:winapinls.obj
 0002:00004a68       ??_C@_15HPFPGODN@?$AAl?$AAv?$AA?$AA@ 0000000180023a68     LIBCMT:winapinls.obj
 0002:00004a70       ??_C@_15NFFGKGLG@?$AAl?$AAt?$AA?$AA@ 0000000180023a70     LIBCMT:winapinls.obj
 0002:00004a78       ??_C@_15BDAKCCHN@?$AAf?$AAa?$AA?$AA@ 0000000180023a78     LIBCMT:winapinls.obj
 0002:00004a80       ??_C@_15NFGIAIAJ@?$AAv?$AAi?$AA?$AA@ 0000000180023a80     LIBCMT:winapinls.obj
 0002:00004a88       ??_C@_15LMKNDMHN@?$AAh?$AAy?$AA?$AA@ 0000000180023a88     LIBCMT:winapinls.obj
 0002:00004a90       ??_C@_15IJBHMCFL@?$AAa?$AAz?$AA?$AA@ 0000000180023a90     LIBCMT:winapinls.obj
 0002:00004a98       ??_C@_15EKOFJABL@?$AAe?$AAu?$AA?$AA@ 0000000180023a98     LIBCMT:winapinls.obj
 0002:00004aa0       ??_C@_15BGHADCNK@?$AAm?$AAk?$AA?$AA@ 0000000180023aa0     LIBCMT:winapinls.obj
 0002:00004aa8       ??_C@_15JDNICKHM@?$AAa?$AAf?$AA?$AA@ 0000000180023aa8     LIBCMT:winapinls.obj
 0002:00004ab0       ??_C@_15KPJEDBKD@?$AAk?$AAa?$AA?$AA@ 0000000180023ab0     LIBCMT:winapinls.obj
 0002:00004ab8       ??_C@_15PDNFFFEO@?$AAf?$AAo?$AA?$AA@ 0000000180023ab8     LIBCMT:winapinls.obj
 0002:00004ac0       ??_C@_15OMLEGLOC@?$AAh?$AAi?$AA?$AA@ 0000000180023ac0     LIBCMT:winapinls.obj
 0002:00004ac8       ??_C@_15IDNNENKK@?$AAm?$AAs?$AA?$AA@ 0000000180023ac8     LIBCMT:winapinls.obj
 0002:00004ad0       ??_C@_15MACJNBMH@?$AAk?$AAk?$AA?$AA@ 0000000180023ad0     LIBCMT:winapinls.obj
 0002:00004ad8       ??_C@_15DKDJEOND@?$AAk?$AAy?$AA?$AA@ 0000000180023ad8     LIBCMT:winapinls.obj
 0002:00004ae0       ??_C@_15DFGDLJBG@?$AAs?$AAw?$AA?$AA@ 0000000180023ae0     LIBCMT:winapinls.obj
 0002:00004ae8       ??_C@_15BBFAICNG@?$AAu?$AAz?$AA?$AA@ 0000000180023ae8     LIBCMT:winapinls.obj
 0002:00004af0       ??_C@_15DKNDCGEA@?$AAt?$AAt?$AA?$AA@ 0000000180023af0     LIBCMT:winapinls.obj
 0002:00004af8       ??_C@_15MGIFMDPL@?$AAp?$AAa?$AA?$AA@ 0000000180023af8     LIBCMT:winapinls.obj
 0002:00004b00       ??_C@_15HCNDBBA@?$AAg?$AAu?$AA?$AA@ 0000000180023b00     LIBCMT:winapinls.obj
 0002:00004b08       ??_C@_15FNBEIBON@?$AAt?$AAa?$AA?$AA@ 0000000180023b08     LIBCMT:winapinls.obj
 0002:00004b10       ??_C@_15NCHGBGLK@?$AAt?$AAe?$AA?$AA@ 0000000180023b10     LIBCMT:winapinls.obj
 0002:00004b18       ??_C@_15PHPHCBPF@?$AAk?$AAn?$AA?$AA@ 0000000180023b18     LIBCMT:winapinls.obj
 0002:00004b20       ??_C@_15DLGBCKMP@?$AAm?$AAr?$AA?$AA@ 0000000180023b20     LIBCMT:winapinls.obj
 0002:00004b28       ??_C@_15EABBLBFF@?$AAs?$AAa?$AA?$AA@ 0000000180023b28     LIBCMT:winapinls.obj
 0002:00004b30       ??_C@_15CBKOMCOI@?$AAm?$AAn?$AA?$AA@ 0000000180023b30     LIBCMT:winapinls.obj
 0002:00004b38       ??_C@_15CKDMCJAF@?$AAg?$AAl?$AA?$AA@ 0000000180023b38     LIBCMT:winapinls.obj
 0002:00004b40       ??_C@_17CNJFBPG@?$AAk?$AAo?$AAk?$AA?$AA@ 0000000180023b40     LIBCMT:winapinls.obj
 0002:00004b48       ??_C@_17FFBJICPL@?$AAs?$AAy?$AAr?$AA?$AA@ 0000000180023b48     LIBCMT:winapinls.obj
 0002:00004b50       ??_C@_17KPNDCPAF@?$AAd?$AAi?$AAv?$AA?$AA@ 0000000180023b50     LIBCMT:winapinls.obj
 0002:00004b58       ??_C@_1M@OKAHONE@?$AAa?$AAr?$AA?9?$AAS?$AAA?$AA?$AA@ 0000000180023b58     LIBCMT:winapinls.obj
 0002:00004b68       ??_C@_1M@FFFIGIGK@?$AAb?$AAg?$AA?9?$AAB?$AAG?$AA?$AA@ 0000000180023b68     LIBCMT:winapinls.obj
 0002:00004b78       ??_C@_1M@BJNKEDC@?$AAc?$AAa?$AA?9?$AAE?$AAS?$AA?$AA@ 0000000180023b78     LIBCMT:winapinls.obj
 0002:00004b88       ??_C@_1M@CLNBBOPM@?$AAz?$AAh?$AA?9?$AAT?$AAW?$AA?$AA@ 0000000180023b88     LIBCMT:winapinls.obj
 0002:00004b98       ??_C@_1M@IJJHFJHA@?$AAc?$AAs?$AA?9?$AAC?$AAZ?$AA?$AA@ 0000000180023b98     LIBCMT:winapinls.obj
 0002:00004ba8       ??_C@_1M@CLPEOBGI@?$AAd?$AAa?$AA?9?$AAD?$AAK?$AA?$AA@ 0000000180023ba8     LIBCMT:winapinls.obj
 0002:00004bb8       ??_C@_1M@MCMADGCB@?$AAd?$AAe?$AA?9?$AAD?$AAE?$AA?$AA@ 0000000180023bb8     LIBCMT:winapinls.obj
 0002:00004bc8       ??_C@_1M@OOCKEMAM@?$AAe?$AAl?$AA?9?$AAG?$AAR?$AA?$AA@ 0000000180023bc8     LIBCMT:winapinls.obj
 0002:00004bd8       ??_C@_1M@BMHNFIME@?$AAe?$AAn?$AA?9?$AAU?$AAS?$AA?$AA@ 0000000180023bd8     LIBCMT:winapinls.obj
 0002:00004be8       ??_C@_1M@DDNJFGID@?$AAf?$AAi?$AA?9?$AAF?$AAI?$AA?$AA@ 0000000180023be8     LIBCMT:winapinls.obj
 0002:00004bf8       ??_C@_1M@GLIPPMAC@?$AAf?$AAr?$AA?9?$AAF?$AAR?$AA?$AA@ 0000000180023bf8     LIBCMT:winapinls.obj
 0002:00004c08       ??_C@_1M@GFMCHPE@?$AAh?$AAe?$AA?9?$AAI?$AAL?$AA?$AA@ 0000000180023c08     LIBCMT:winapinls.obj
 0002:00004c18       ??_C@_1M@MHLPGNKM@?$AAh?$AAu?$AA?9?$AAH?$AAU?$AA?$AA@ 0000000180023c18     LIBCMT:winapinls.obj
 0002:00004c28       ??_C@_1M@LPDDNNPN@?$AAi?$AAs?$AA?9?$AAI?$AAS?$AA?$AA@ 0000000180023c28     LIBCMT:winapinls.obj
 0002:00004c38       ??_C@_1M@MADIPODN@?$AAi?$AAt?$AA?9?$AAI?$AAT?$AA?$AA@ 0000000180023c38     LIBCMT:winapinls.obj
 0002:00004c48       ??_C@_1M@HPNHIDJI@?$AAj?$AAa?$AA?9?$AAJ?$AAP?$AA?$AA@ 0000000180023c48     LIBCMT:winapinls.obj
 0002:00004c58       ??_C@_1M@JLOOOEGK@?$AAk?$AAo?$AA?9?$AAK?$AAR?$AA?$AA@ 0000000180023c58     LIBCMT:winapinls.obj
 0002:00004c68       ??_C@_1M@IHBJJGG@?$AAn?$AAl?$AA?9?$AAN?$AAL?$AA?$AA@ 0000000180023c68     LIBCMT:winapinls.obj
 0002:00004c78       ??_C@_1M@EANAGDL@?$AAn?$AAb?$AA?9?$AAN?$AAO?$AA?$AA@ 0000000180023c78     LIBCMT:winapinls.obj
 0002:00004c88       ??_C@_1M@NEIEMEGP@?$AAp?$AAl?$AA?9?$AAP?$AAL?$AA?$AA@ 0000000180023c88     LIBCMT:winapinls.obj
 0002:00004c98       ??_C@_1M@BOCFIGEP@?$AAp?$AAt?$AA?9?$AAB?$AAR?$AA?$AA@ 0000000180023c98     LIBCMT:winapinls.obj
 0002:00004ca8       ??_C@_1M@IMPFOPBG@?$AAr?$AAo?$AA?9?$AAR?$AAO?$AA?$AA@ 0000000180023ca8     LIBCMT:winapinls.obj
 0002:00004cb8       ??_C@_1M@IDNNEJMM@?$AAr?$AAu?$AA?9?$AAR?$AAU?$AA?$AA@ 0000000180023cb8     LIBCMT:winapinls.obj
 0002:00004cc8       ??_C@_1M@LILEEOGM@?$AAh?$AAr?$AA?9?$AAH?$AAR?$AA?$AA@ 0000000180023cc8     LIBCMT:winapinls.obj
 0002:00004cd8       ??_C@_1M@FKIFEHPB@?$AAs?$AAk?$AA?9?$AAS?$AAK?$AA?$AA@ 0000000180023cd8     LIBCMT:winapinls.obj
 0002:00004ce8       ??_C@_1M@LJMAMNPJ@?$AAs?$AAq?$AA?9?$AAA?$AAL?$AA?$AA@ 0000000180023ce8     LIBCMT:winapinls.obj
 0002:00004cf8       ??_C@_1M@GIAKDKJK@?$AAs?$AAv?$AA?9?$AAS?$AAE?$AA?$AA@ 0000000180023cf8     LIBCMT:winapinls.obj
 0002:00004d08       ??_C@_1M@MKJKIKCL@?$AAt?$AAh?$AA?9?$AAT?$AAH?$AA?$AA@ 0000000180023d08     LIBCMT:winapinls.obj
 0002:00004d18       ??_C@_1M@MFLCCMPB@?$AAt?$AAr?$AA?9?$AAT?$AAR?$AA?$AA@ 0000000180023d18     LIBCMT:winapinls.obj
 0002:00004d28       ??_C@_1M@OIJHDKJN@?$AAu?$AAr?$AA?9?$AAP?$AAK?$AA?$AA@ 0000000180023d28     LIBCMT:winapinls.obj
 0002:00004d38       ??_C@_1M@LHIPCIEK@?$AAi?$AAd?$AA?9?$AAI?$AAD?$AA?$AA@ 0000000180023d38     LIBCMT:winapinls.obj
 0002:00004d48       ??_C@_1M@MFMOBGI@?$AAu?$AAk?$AA?9?$AAU?$AAA?$AA?$AA@ 0000000180023d48     LIBCMT:winapinls.obj
 0002:00004d58       ??_C@_1M@OBGLJIPL@?$AAb?$AAe?$AA?9?$AAB?$AAY?$AA?$AA@ 0000000180023d58     LIBCMT:winapinls.obj
 0002:00004d68       ??_C@_1M@BCFAJEAD@?$AAs?$AAl?$AA?9?$AAS?$AAI?$AA?$AA@ 0000000180023d68     LIBCMT:winapinls.obj
 0002:00004d78       ??_C@_1M@FKFFEDDN@?$AAe?$AAt?$AA?9?$AAE?$AAE?$AA?$AA@ 0000000180023d78     LIBCMT:winapinls.obj
 0002:00004d88       ??_C@_1M@KGKKAACI@?$AAl?$AAv?$AA?9?$AAL?$AAV?$AA?$AA@ 0000000180023d88     LIBCMT:winapinls.obj
 0002:00004d98       ??_C@_1M@IFGBIJO@?$AAl?$AAt?$AA?9?$AAL?$AAT?$AA?$AA@ 0000000180023d98     LIBCMT:winapinls.obj
 0002:00004da8       ??_C@_1M@FGEAHEDM@?$AAf?$AAa?$AA?9?$AAI?$AAR?$AA?$AA@ 0000000180023da8     LIBCMT:winapinls.obj
 0002:00004db8       ??_C@_1M@KBMAIBFN@?$AAv?$AAi?$AA?9?$AAV?$AAN?$AA?$AA@ 0000000180023db8     LIBCMT:winapinls.obj
 0002:00004dc8       ??_C@_1M@GPCBKDJK@?$AAh?$AAy?$AA?9?$AAA?$AAM?$AA?$AA@ 0000000180023dc8     LIBCMT:winapinls.obj
 0002:00004dd8       ??_C@_1BG@BECMDDJB@?$AAa?$AAz?$AA?9?$AAA?$AAZ?$AA?9?$AAL?$AAa?$AAt?$AAn?$AA?$AA@ 0000000180023dd8     LIBCMT:winapinls.obj
 0002:00004df0       ??_C@_1M@MAOFCAEA@?$AAe?$AAu?$AA?9?$AAE?$AAS?$AA?$AA@ 0000000180023df0     LIBCMT:winapinls.obj
 0002:00004e00       ??_C@_1M@IGHABKPI@?$AAm?$AAk?$AA?9?$AAM?$AAK?$AA?$AA@ 0000000180023e00     LIBCMT:winapinls.obj
 0002:00004e10       ??_C@_1M@IAIGNEJG@?$AAt?$AAn?$AA?9?$AAZ?$AAA?$AA?$AA@ 0000000180023e10     LIBCMT:winapinls.obj
 0002:00004e20       ??_C@_1M@IIJCOJFA@?$AAx?$AAh?$AA?9?$AAZ?$AAA?$AA?$AA@ 0000000180023e20     LIBCMT:winapinls.obj
 0002:00004e30       ??_C@_1M@LGPJHNJH@?$AAz?$AAu?$AA?9?$AAZ?$AAA?$AA?$AA@ 0000000180023e30     LIBCMT:winapinls.obj
 0002:00004e40       ??_C@_1M@HOKAOIO@?$AAa?$AAf?$AA?9?$AAZ?$AAA?$AA?$AA@ 0000000180023e40     LIBCMT:winapinls.obj
 0002:00004e50       ??_C@_1M@DPCLHLIE@?$AAk?$AAa?$AA?9?$AAG?$AAE?$AA?$AA@ 0000000180023e50     LIBCMT:winapinls.obj
 0002:00004e60       ??_C@_1M@BLKMHJBI@?$AAf?$AAo?$AA?9?$AAF?$AAO?$AA?$AA@ 0000000180023e60     LIBCMT:winapinls.obj
 0002:00004e70       ??_C@_1M@LGGJAPPB@?$AAh?$AAi?$AA?9?$AAI?$AAN?$AA?$AA@ 0000000180023e70     LIBCMT:winapinls.obj
 0002:00004e80       ??_C@_1M@FIKPIHFE@?$AAm?$AAt?$AA?9?$AAM?$AAT?$AA?$AA@ 0000000180023e80     LIBCMT:winapinls.obj
 0002:00004e90       ??_C@_1M@HEGGPBFA@?$AAs?$AAe?$AA?9?$AAN?$AAO?$AA?$AA@ 0000000180023e90     LIBCMT:winapinls.obj
 0002:00004ea0       ??_C@_1M@EIBJEEPA@?$AAm?$AAs?$AA?9?$AAM?$AAY?$AA?$AA@ 0000000180023ea0     LIBCMT:winapinls.obj
 0002:00004eb0       ??_C@_1M@FHLBGMPP@?$AAk?$AAk?$AA?9?$AAK?$AAZ?$AA?$AA@ 0000000180023eb0     LIBCMT:winapinls.obj
 0002:00004ec0       ??_C@_1M@NGJJLCGI@?$AAk?$AAy?$AA?9?$AAK?$AAG?$AA?$AA@ 0000000180023ec0     LIBCMT:winapinls.obj
 0002:00004ed0       ??_C@_1M@GIENNBFC@?$AAs?$AAw?$AA?9?$AAK?$AAE?$AA?$AA@ 0000000180023ed0     LIBCMT:winapinls.obj
 0002:00004ee0       ??_C@_1BG@NDGMJIMJ@?$AAu?$AAz?$AA?9?$AAU?$AAZ?$AA?9?$AAL?$AAa?$AAt?$AAn?$AA?$AA@ 0000000180023ee0     LIBCMT:winapinls.obj
 0002:00004ef8       ??_C@_1M@IDCCIHBC@?$AAt?$AAt?$AA?9?$AAR?$AAU?$AA?$AA@ 0000000180023ef8     LIBCMT:winapinls.obj
 0002:00004f08       ??_C@_1M@LOICPMOJ@?$AAb?$AAn?$AA?9?$AAI?$AAN?$AA?$AA@ 0000000180023f08     LIBCMT:winapinls.obj
 0002:00004f18       ??_C@_1M@KPKKNEAH@?$AAp?$AAa?$AA?9?$AAI?$AAN?$AA?$AA@ 0000000180023f18     LIBCMT:winapinls.obj
 0002:00004f28       ??_C@_1M@PJGPPBOG@?$AAg?$AAu?$AA?9?$AAI?$AAN?$AA?$AA@ 0000000180023f28     LIBCMT:winapinls.obj
 0002:00004f38       ??_C@_1M@KMKMOPHI@?$AAt?$AAa?$AA?9?$AAI?$AAN?$AA?$AA@ 0000000180023f38     LIBCMT:winapinls.obj
 0002:00004f48       ??_C@_1M@KFEHEPAC@?$AAt?$AAe?$AA?9?$AAI?$AAN?$AA?$AA@ 0000000180023f48     LIBCMT:winapinls.obj
 0002:00004f58       ??_C@_1M@CDCLMGHI@?$AAk?$AAn?$AA?9?$AAI?$AAN?$AA?$AA@ 0000000180023f58     LIBCMT:winapinls.obj
 0002:00004f68       ??_C@_1M@MIODLDKF@?$AAm?$AAl?$AA?9?$AAI?$AAN?$AA?$AA@ 0000000180023f68     LIBCMT:winapinls.obj
 0002:00004f78       ??_C@_1M@PBIEACPO@?$AAm?$AAr?$AA?9?$AAI?$AAN?$AA?$AA@ 0000000180023f78     LIBCMT:winapinls.obj
 0002:00004f88       ??_C@_1M@NIDEAGPH@?$AAs?$AAa?$AA?9?$AAI?$AAN?$AA?$AA@ 0000000180023f88     LIBCMT:winapinls.obj
 0002:00004f98       ??_C@_1M@FHIHCBIO@?$AAm?$AAn?$AA?9?$AAM?$AAN?$AA?$AA@ 0000000180023f98     LIBCMT:winapinls.obj
 0002:00004fa8       ??_C@_1M@JAIJPENP@?$AAc?$AAy?$AA?9?$AAG?$AAB?$AA?$AA@ 0000000180023fa8     LIBCMT:winapinls.obj
 0002:00004fb8       ??_C@_1M@PHGFBEPN@?$AAg?$AAl?$AA?9?$AAE?$AAS?$AA?$AA@ 0000000180023fb8     LIBCMT:winapinls.obj
 0002:00004fc8       ??_C@_1O@KPIPDNCP@?$AAk?$AAo?$AAk?$AA?9?$AAI?$AAN?$AA?$AA@ 0000000180023fc8     LIBCMT:winapinls.obj
 0002:00004fd8       ??_C@_1O@KNHJLDJA@?$AAs?$AAy?$AAr?$AA?9?$AAS?$AAY?$AA?$AA@ 0000000180023fd8     LIBCMT:winapinls.obj
 0002:00004fe8       ??_C@_1O@MKEKBLAH@?$AAd?$AAi?$AAv?$AA?9?$AAM?$AAV?$AA?$AA@ 0000000180023fe8     LIBCMT:winapinls.obj
 0002:00004ff8       ??_C@_1O@OHDCKDDF@?$AAq?$AAu?$AAz?$AA?9?$AAB?$AAO?$AA?$AA@ 0000000180023ff8     LIBCMT:winapinls.obj
 0002:00005008       ??_C@_1M@LEPJNLFD@?$AAn?$AAs?$AA?9?$AAZ?$AAA?$AA?$AA@ 0000000180024008     LIBCMT:winapinls.obj
 0002:00005018       ??_C@_1M@OMLEIIJB@?$AAm?$AAi?$AA?9?$AAN?$AAZ?$AA?$AA@ 0000000180024018     LIBCMT:winapinls.obj
 0002:00005028       ??_C@_1M@PMPEAILG@?$AAa?$AAr?$AA?9?$AAI?$AAQ?$AA?$AA@ 0000000180024028     LIBCMT:winapinls.obj
 0002:00005038       ??_C@_1M@BIBDDEMK@?$AAz?$AAh?$AA?9?$AAC?$AAN?$AA?$AA@ 0000000180024038     LIBCMT:winapinls.obj
 0002:00005048       ??_C@_1M@CNKPNOEE@?$AAd?$AAe?$AA?9?$AAC?$AAH?$AA?$AA@ 0000000180024048     LIBCMT:winapinls.obj
 0002:00005058       ??_C@_1M@LKMGMLKO@?$AAe?$AAn?$AA?9?$AAG?$AAB?$AA?$AA@ 0000000180024058     LIBCMT:winapinls.obj
 0002:00005068       ??_C@_1M@PGKJFFGL@?$AAe?$AAs?$AA?9?$AAM?$AAX?$AA?$AA@ 0000000180024068     LIBCMT:winapinls.obj
 0002:00005078       ??_C@_1M@DNNANBDC@?$AAf?$AAr?$AA?9?$AAB?$AAE?$AA?$AA@ 0000000180024078     LIBCMT:winapinls.obj
 0002:00005088       ??_C@_1M@HLGMDFHM@?$AAi?$AAt?$AA?9?$AAC?$AAH?$AA?$AA@ 0000000180024088     LIBCMT:winapinls.obj
 0002:00005098       ??_C@_1M@CLLBGJH@?$AAn?$AAl?$AA?9?$AAB?$AAE?$AA?$AA@ 0000000180024098     LIBCMT:winapinls.obj
 0002:000050a8       ??_C@_1M@BODBOGLF@?$AAn?$AAn?$AA?9?$AAN?$AAO?$AA?$AA@ 00000001800240a8     LIBCMT:winapinls.obj
 0002:000050b8       ??_C@_1M@HFFAHKAD@?$AAp?$AAt?$AA?9?$AAP?$AAT?$AA?$AA@ 00000001800240b8     LIBCMT:winapinls.obj
 0002:000050c8       ??_C@_1BG@LNOAKHIE@?$AAs?$AAr?$AA?9?$AAS?$AAP?$AA?9?$AAL?$AAa?$AAt?$AAn?$AA?$AA@ 00000001800240c8     LIBCMT:winapinls.obj
 0002:000050e0       ??_C@_1M@HBMHBGAK@?$AAs?$AAv?$AA?9?$AAF?$AAI?$AA?$AA@ 00000001800240e0     LIBCMT:winapinls.obj
 0002:000050f0       ??_C@_1BG@DGCJGJBE@?$AAa?$AAz?$AA?9?$AAA?$AAZ?$AA?9?$AAC?$AAy?$AAr?$AAl?$AA?$AA@ 00000001800240f0     LIBCMT:winapinls.obj
 0002:00005108       ??_C@_1M@KEJDAAHB@?$AAs?$AAe?$AA?9?$AAS?$AAE?$AA?$AA@ 0000000180024108     LIBCMT:winapinls.obj
 0002:00005118       ??_C@_1M@HEIBJJAD@?$AAm?$AAs?$AA?9?$AAB?$AAN?$AA?$AA@ 0000000180024118     LIBCMT:winapinls.obj
 0002:00005128       ??_C@_1BG@PBGJMCEM@?$AAu?$AAz?$AA?9?$AAU?$AAZ?$AA?9?$AAC?$AAy?$AAr?$AAl?$AA?$AA@ 0000000180024128     LIBCMT:winapinls.obj
 0002:00005140       ??_C@_1O@LAOBCMDF@?$AAq?$AAu?$AAz?$AA?9?$AAE?$AAC?$AA?$AA@ 0000000180024140     LIBCMT:winapinls.obj
 0002:00005150       ??_C@_1M@POEEMAIO@?$AAa?$AAr?$AA?9?$AAE?$AAG?$AA?$AA@ 0000000180024150     LIBCMT:winapinls.obj
 0002:00005160       ??_C@_1M@EFAKDEDL@?$AAz?$AAh?$AA?9?$AAH?$AAK?$AA?$AA@ 0000000180024160     LIBCMT:winapinls.obj
 0002:00005170       ??_C@_1M@HKKIJHGI@?$AAd?$AAe?$AA?9?$AAA?$AAT?$AA?$AA@ 0000000180024170     LIBCMT:winapinls.obj
 0002:00005180       ??_C@_1M@KBFBEHJF@?$AAe?$AAn?$AA?9?$AAA?$AAU?$AA?$AA@ 0000000180024180     LIBCMT:winapinls.obj
 0002:00005190       ??_C@_1M@MNPLFAAH@?$AAe?$AAs?$AA?9?$AAE?$AAS?$AA?$AA@ 0000000180024190     LIBCMT:winapinls.obj
 0002:000051a0       ??_C@_1M@HJOOJFMA@?$AAf?$AAr?$AA?9?$AAC?$AAA?$AA?$AA@ 00000001800241a0     LIBCMT:winapinls.obj
 0002:000051b0       ??_C@_1BG@JPOFPNAB@?$AAs?$AAr?$AA?9?$AAS?$AAP?$AA?9?$AAC?$AAy?$AAr?$AAl?$AA?$AA@ 00000001800241b0     LIBCMT:winapinls.obj
 0002:000051c8       ??_C@_1M@LNFOCMOB@?$AAs?$AAe?$AA?9?$AAF?$AAI?$AA?$AA@ 00000001800241c8     LIBCMT:winapinls.obj
 0002:000051d8       ??_C@_1O@MGJBOAMB@?$AAq?$AAu?$AAz?$AA?9?$AAP?$AAE?$AA?$AA@ 00000001800241d8     LIBCMT:winapinls.obj
 0002:000051e8       ??_C@_1M@GJINLBOK@?$AAa?$AAr?$AA?9?$AAL?$AAY?$AA?$AA@ 00000001800241e8     LIBCMT:winapinls.obj
 0002:000051f8       ??_C@_1M@GGMNHJNL@?$AAz?$AAh?$AA?9?$AAS?$AAG?$AA?$AA@ 00000001800241f8     LIBCMT:winapinls.obj
 0002:00005208       ??_C@_1M@HOIKODND@?$AAd?$AAe?$AA?9?$AAL?$AAU?$AA?$AA@ 0000000180024208     LIBCMT:winapinls.obj
 0002:00005218       ??_C@_1M@DDOCCGFG@?$AAe?$AAn?$AA?9?$AAC?$AAA?$AA?$AA@ 0000000180024218     LIBCMT:winapinls.obj
 0002:00005228       ??_C@_1M@BNOEMJLF@?$AAe?$AAs?$AA?9?$AAG?$AAT?$AA?$AA@ 0000000180024228     LIBCMT:winapinls.obj
 0002:00005238       ??_C@_1M@EOGNKEK@?$AAf?$AAr?$AA?9?$AAC?$AAH?$AA?$AA@ 0000000180024238     LIBCMT:winapinls.obj
 0002:00005248       ??_C@_1M@FLIDJFHL@?$AAh?$AAr?$AA?9?$AAB?$AAA?$AA?$AA@ 0000000180024248     LIBCMT:winapinls.obj
 0002:00005258       ??_C@_1O@FMCELNAJ@?$AAs?$AAm?$AAj?$AA?9?$AAN?$AAO?$AA?$AA@ 0000000180024258     LIBCMT:winapinls.obj
 0002:00005268       ??_C@_1M@JHGLJMGJ@?$AAa?$AAr?$AA?9?$AAD?$AAZ?$AA?$AA@ 0000000180024268     LIBCMT:winapinls.obj
 0002:00005278       ??_C@_1M@JKKFDCNP@?$AAz?$AAh?$AA?9?$AAM?$AAO?$AA?$AA@ 0000000180024278     LIBCMT:winapinls.obj
 0002:00005288       ??_C@_1M@GEEFALPE@?$AAd?$AAe?$AA?9?$AAL?$AAI?$AA?$AA@ 0000000180024288     LIBCMT:winapinls.obj
 0002:00005298       ??_C@_1M@IGEOFBG@?$AAe?$AAn?$AA?9?$AAN?$AAZ?$AA?$AA@ 0000000180024298     LIBCMT:winapinls.obj
 0002:000052a8       ??_C@_1M@KDBONEHP@?$AAe?$AAs?$AA?9?$AAC?$AAR?$AA?$AA@ 00000001800242a8     LIBCMT:winapinls.obj
 0002:000052b8       ??_C@_1M@FHMDOHNN@?$AAf?$AAr?$AA?9?$AAL?$AAU?$AA?$AA@ 00000001800242b8     LIBCMT:winapinls.obj
 0002:000052c8       ??_C@_1BG@NFKKMAFG@?$AAb?$AAs?$AA?9?$AAB?$AAA?$AA?9?$AAL?$AAa?$AAt?$AAn?$AA?$AA@ 00000001800242c8     LIBCMT:winapinls.obj
 0002:000052e0       ??_C@_1O@IMNBEMCI@?$AAs?$AAm?$AAj?$AA?9?$AAS?$AAE?$AA?$AA@ 00000001800242e0     LIBCMT:winapinls.obj
 0002:000052f0       ??_C@_1M@DHHMBNDP@?$AAa?$AAr?$AA?9?$AAM?$AAA?$AA?$AA@ 00000001800242f0     LIBCMT:winapinls.obj
 0002:00005300       ??_C@_1M@BNBLJCGH@?$AAe?$AAn?$AA?9?$AAI?$AAE?$AA?$AA@ 0000000180024300     LIBCMT:winapinls.obj
 0002:00005310       ??_C@_1M@GEPAFMDL@?$AAe?$AAs?$AA?9?$AAP?$AAA?$AA?$AA@ 0000000180024310     LIBCMT:winapinls.obj
 0002:00005320       ??_C@_1M@OJONDMDL@?$AAf?$AAr?$AA?9?$AAM?$AAC?$AA?$AA@ 0000000180024320     LIBCMT:winapinls.obj
 0002:00005330       ??_C@_1BG@OBCNFJB@?$AAs?$AAr?$AA?9?$AAB?$AAA?$AA?9?$AAL?$AAa?$AAt?$AAn?$AA?$AA@ 0000000180024330     LIBCMT:winapinls.obj
 0002:00005348       ??_C@_1O@KEMEEGPO@?$AAs?$AAm?$AAa?$AA?9?$AAN?$AAO?$AA?$AA@ 0000000180024348     LIBCMT:winapinls.obj
 0002:00005358       ??_C@_1M@ELMGFODK@?$AAa?$AAr?$AA?9?$AAT?$AAN?$AA?$AA@ 0000000180024358     LIBCMT:winapinls.obj
 0002:00005368       ??_C@_1M@BHDLHFAF@?$AAe?$AAn?$AA?9?$AAZ?$AAA?$AA?$AA@ 0000000180024368     LIBCMT:winapinls.obj
 0002:00005378       ??_C@_1M@BMGIGLIF@?$AAe?$AAs?$AA?9?$AAD?$AAO?$AA?$AA@ 0000000180024378     LIBCMT:winapinls.obj
 0002:00005388       ??_C@_1BG@CMBHIPBE@?$AAs?$AAr?$AA?9?$AAB?$AAA?$AA?9?$AAC?$AAy?$AAr?$AAl?$AA?$AA@ 0000000180024388     LIBCMT:winapinls.obj
 0002:000053a0       ??_C@_1O@HEDBLHNP@?$AAs?$AAm?$AAa?$AA?9?$AAS?$AAE?$AA?$AA@ 00000001800243a0     LIBCMT:winapinls.obj
 0002:000053b0       ??_C@_1M@DAGCADIM@?$AAa?$AAr?$AA?9?$AAO?$AAM?$AA?$AA@ 00000001800243b0     LIBCMT:winapinls.obj
 0002:000053c0       ??_C@_1M@FODLMICG@?$AAe?$AAn?$AA?9?$AAJ?$AAM?$AA?$AA@ 00000001800243c0     LIBCMT:winapinls.obj
 0002:000053d0       ??_C@_1M@DNMLCIHB@?$AAe?$AAs?$AA?9?$AAV?$AAE?$AA?$AA@ 00000001800243d0     LIBCMT:winapinls.obj
 0002:000053e0       ??_C@_1O@EOKHMKJK@?$AAs?$AAm?$AAs?$AA?9?$AAF?$AAI?$AA?$AA@ 00000001800243e0     LIBCMT:winapinls.obj
 0002:000053f0       ??_C@_1M@CAFJMKOF@?$AAa?$AAr?$AA?9?$AAY?$AAE?$AA?$AA@ 00000001800243f0     LIBCMT:winapinls.obj
 0002:00005400       ??_C@_1M@CBFHIJLI@?$AAe?$AAn?$AA?9?$AAC?$AAB?$AA?$AA@ 0000000180024400     LIBCMT:winapinls.obj
 0002:00005410       ??_C@_1M@BGNFLDN@?$AAe?$AAs?$AA?9?$AAC?$AAO?$AA?$AA@ 0000000180024410     LIBCMT:winapinls.obj
 0002:00005420       ??_C@_1O@JMPHMAMC@?$AAs?$AAm?$AAn?$AA?9?$AAF?$AAI?$AA?$AA@ 0000000180024420     LIBCMT:winapinls.obj
 0002:00005430       ??_C@_1M@JLANABKE@?$AAa?$AAr?$AA?9?$AAS?$AAY?$AA?$AA@ 0000000180024430     LIBCMT:winapinls.obj
 0002:00005440       ??_C@_1M@HPKGCFGN@?$AAe?$AAn?$AA?9?$AAB?$AAZ?$AA?$AA@ 0000000180024440     LIBCMT:winapinls.obj
 0002:00005450       ??_C@_1M@OLJCMLGM@?$AAe?$AAs?$AA?9?$AAP?$AAE?$AA?$AA@ 0000000180024450     LIBCMT:winapinls.obj
 0002:00005460       ??_C@_1M@MKKGFKLE@?$AAa?$AAr?$AA?9?$AAJ?$AAO?$AA?$AA@ 0000000180024460     LIBCMT:winapinls.obj
 0002:00005470       ??_C@_1M@EKPGLDNI@?$AAe?$AAn?$AA?9?$AAT?$AAT?$AA?$AA@ 0000000180024470     LIBCMT:winapinls.obj
 0002:00005480       ??_C@_1M@OONGHFHE@?$AAe?$AAs?$AA?9?$AAA?$AAR?$AA?$AA@ 0000000180024480     LIBCMT:winapinls.obj
 0002:00005490       ??_C@_1M@OOJFGBHE@?$AAa?$AAr?$AA?9?$AAL?$AAB?$AA?$AA@ 0000000180024490     LIBCMT:winapinls.obj
 0002:000054a0       ??_C@_1M@GCEJHNEG@?$AAe?$AAn?$AA?9?$AAZ?$AAW?$AA?$AA@ 00000001800244a0     LIBCMT:winapinls.obj
 0002:000054b0       ??_C@_1M@JNOCAHJI@?$AAe?$AAs?$AA?9?$AAE?$AAC?$AA?$AA@ 00000001800244b0     LIBCMT:winapinls.obj
 0002:000054c0       ??_C@_1M@JEFHPGGB@?$AAa?$AAr?$AA?9?$AAK?$AAW?$AA?$AA@ 00000001800244c0     LIBCMT:winapinls.obj
 0002:000054d0       ??_C@_1M@MLKIBJOJ@?$AAe?$AAn?$AA?9?$AAP?$AAH?$AA?$AA@ 00000001800244d0     LIBCMT:winapinls.obj
 0002:000054e0       ??_C@_1M@BDNIPEND@?$AAe?$AAs?$AA?9?$AAC?$AAL?$AA?$AA@ 00000001800244e0     LIBCMT:winapinls.obj
 0002:000054f0       ??_C@_1M@MPNMEKBD@?$AAa?$AAr?$AA?9?$AAA?$AAE?$AA?$AA@ 00000001800244f0     LIBCMT:winapinls.obj
 0002:00005500       ??_C@_1M@KBJALCPI@?$AAe?$AAs?$AA?9?$AAU?$AAY?$AA?$AA@ 0000000180024500     LIBCMT:winapinls.obj
 0002:00005510       ??_C@_1M@LLCCOAGA@?$AAa?$AAr?$AA?9?$AAB?$AAH?$AA?$AA@ 0000000180024510     LIBCMT:winapinls.obj
 0002:00005520       ??_C@_1M@PBFNCDEL@?$AAe?$AAs?$AA?9?$AAP?$AAY?$AA?$AA@ 0000000180024520     LIBCMT:winapinls.obj
 0002:00005530       ??_C@_1M@EDGINPNP@?$AAa?$AAr?$AA?9?$AAQ?$AAA?$AA?$AA@ 0000000180024530     LIBCMT:winapinls.obj
 0002:00005540       ??_C@_1M@MKDBIIJI@?$AAe?$AAs?$AA?9?$AAB?$AAO?$AA?$AA@ 0000000180024540     LIBCMT:winapinls.obj
 0002:00005550       ??_C@_1M@CPKKEBLD@?$AAe?$AAs?$AA?9?$AAS?$AAV?$AA?$AA@ 0000000180024550     LIBCMT:winapinls.obj
 0002:00005560       ??_C@_1M@NDBGMMJL@?$AAe?$AAs?$AA?9?$AAH?$AAN?$AA?$AA@ 0000000180024560     LIBCMT:winapinls.obj
 0002:00005570       ??_C@_1M@JIJIBHDP@?$AAe?$AAs?$AA?9?$AAN?$AAI?$AA?$AA@ 0000000180024570     LIBCMT:winapinls.obj
 0002:00005580       ??_C@_1M@CGFMKEEK@?$AAe?$AAs?$AA?9?$AAP?$AAR?$AA?$AA@ 0000000180024580     LIBCMT:winapinls.obj
 0002:00005590       ??_C@_1O@ICJHKIIK@?$AAz?$AAh?$AA?9?$AAC?$AAH?$AAT?$AA?$AA@ 0000000180024590     LIBCMT:winapinls.obj
 0002:000055a0       ??_C@_15CLNEJCE@?$AAs?$AAr?$AA?$AA@ 00000001800245a0     LIBCMT:winapinls.obj
 0002:000055a8       ??_C@_1M@KAHEKEIG@?$AAa?$AAf?$AA?9?$AAz?$AAa?$AA?$AA@ 00000001800245a8     LIBCMT:winapinls.obj
 0002:000055b8       ??_C@_1M@GIECOABL@?$AAa?$AAr?$AA?9?$AAa?$AAe?$AA?$AA@ 00000001800245b8     LIBCMT:winapinls.obj
 0002:000055c8       ??_C@_1M@BMLMEKGI@?$AAa?$AAr?$AA?9?$AAb?$AAh?$AA?$AA@ 00000001800245c8     LIBCMT:winapinls.obj
 0002:000055d8       ??_C@_1M@DAPFDGGB@?$AAa?$AAr?$AA?9?$AAd?$AAz?$AA?$AA@ 00000001800245d8     LIBCMT:winapinls.obj
 0002:000055e8       ??_C@_1M@FJNKGKIG@?$AAa?$AAr?$AA?9?$AAe?$AAg?$AA?$AA@ 00000001800245e8     LIBCMT:winapinls.obj
 0002:000055f8       ??_C@_1M@FLGKKCLO@?$AAa?$AAr?$AA?9?$AAi?$AAq?$AA?$AA@ 00000001800245f8     LIBCMT:winapinls.obj
 0002:00005608       ??_C@_1M@GNDIPALM@?$AAa?$AAr?$AA?9?$AAj?$AAo?$AA?$AA@ 0000000180024608     LIBCMT:winapinls.obj
 0002:00005618       ??_C@_1M@DDMJFMGJ@?$AAa?$AAr?$AA?9?$AAk?$AAw?$AA?$AA@ 0000000180024618     LIBCMT:winapinls.obj
 0002:00005628       ??_C@_1M@EJALMLHM@?$AAa?$AAr?$AA?9?$AAl?$AAb?$AA?$AA@ 0000000180024628     LIBCMT:winapinls.obj
 0002:00005638       ??_C@_1M@MOBDBLOC@?$AAa?$AAr?$AA?9?$AAl?$AAy?$AA?$AA@ 0000000180024638     LIBCMT:winapinls.obj
 0002:00005648       ??_C@_1M@JAOCLHDH@?$AAa?$AAr?$AA?9?$AAm?$AAa?$AA?$AA@ 0000000180024648     LIBCMT:winapinls.obj
 0002:00005658       ??_C@_1M@JHPMKJIE@?$AAa?$AAr?$AA?9?$AAo?$AAm?$AA?$AA@ 0000000180024658     LIBCMT:winapinls.obj
 0002:00005668       ??_C@_1M@OEPGHFNH@?$AAa?$AAr?$AA?9?$AAq?$AAa?$AA?$AA@ 0000000180024668     LIBCMT:winapinls.obj
 0002:00005678       ??_C@_1M@KJDONENM@?$AAa?$AAr?$AA?9?$AAs?$AAa?$AA?$AA@ 0000000180024678     LIBCMT:winapinls.obj
 0002:00005688       ??_C@_1M@DMJDKLKM@?$AAa?$AAr?$AA?9?$AAs?$AAy?$AA?$AA@ 0000000180024688     LIBCMT:winapinls.obj
 0002:00005698       ??_C@_1M@OMFIPEDC@?$AAa?$AAr?$AA?9?$AAt?$AAn?$AA?$AA@ 0000000180024698     LIBCMT:winapinls.obj
 0002:000056a8       ??_C@_1M@IHMHGAON@?$AAa?$AAr?$AA?9?$AAy?$AAe?$AA?$AA@ 00000001800246a8     LIBCMT:winapinls.obj
 0002:000056b8       ??_C@_1BG@KDCPGJGB@?$AAa?$AAz?$AA?9?$AAa?$AAz?$AA?9?$AAc?$AAy?$AAr?$AAl?$AA?$AA@ 00000001800246b8     LIBCMT:winapinls.obj
 0002:000056d0       ??_C@_1BG@IBCKDDOE@?$AAa?$AAz?$AA?9?$AAa?$AAz?$AA?9?$AAl?$AAa?$AAt?$AAn?$AA?$AA@ 00000001800246d0     LIBCMT:winapinls.obj
 0002:000056e8       ??_C@_1M@EGPFDCPD@?$AAb?$AAe?$AA?9?$AAb?$AAy?$AA?$AA@ 00000001800246e8     LIBCMT:winapinls.obj
 0002:000056f8       ??_C@_1M@PCMGMCGC@?$AAb?$AAg?$AA?9?$AAb?$AAg?$AA?$AA@ 00000001800246f8     LIBCMT:winapinls.obj
 0002:00005708       ??_C@_1M@BJBMFGOB@?$AAb?$AAn?$AA?9?$AAi?$AAn?$AA?$AA@ 0000000180024708     LIBCMT:winapinls.obj
 0002:00005718       ??_C@_1BG@EAKMMACD@?$AAb?$AAs?$AA?9?$AAb?$AAa?$AA?9?$AAl?$AAa?$AAt?$AAn?$AA?$AA@ 0000000180024718     LIBCMT:winapinls.obj
 0002:00005730       ??_C@_1M@KGADAODK@?$AAc?$AAa?$AA?9?$AAe?$AAs?$AA?$AA@ 0000000180024730     LIBCMT:winapinls.obj
 0002:00005740       ??_C@_1M@COAJPDHI@?$AAc?$AAs?$AA?9?$AAc?$AAz?$AA?$AA@ 0000000180024740     LIBCMT:winapinls.obj
 0002:00005750       ??_C@_1M@DHBHFONH@?$AAc?$AAy?$AA?9?$AAg?$AAb?$AA?$AA@ 0000000180024750     LIBCMT:winapinls.obj
 0002:00005760       ??_C@_1M@IMGKELGA@?$AAd?$AAa?$AA?9?$AAd?$AAk?$AA?$AA@ 0000000180024760     LIBCMT:winapinls.obj
 0002:00005770       ??_C@_1M@NNDGDNGA@?$AAd?$AAe?$AA?9?$AAa?$AAt?$AA?$AA@ 0000000180024770     LIBCMT:winapinls.obj
 0002:00005780       ??_C@_1M@IKDBHEEM@?$AAd?$AAe?$AA?9?$AAc?$AAh?$AA?$AA@ 0000000180024780     LIBCMT:winapinls.obj
 0002:00005790       ??_C@_1M@GFFOJMCJ@?$AAd?$AAe?$AA?9?$AAd?$AAe?$AA?$AA@ 0000000180024790     LIBCMT:winapinls.obj
 0002:000057a0       ??_C@_1M@MDNLKBPM@?$AAd?$AAe?$AA?9?$AAl?$AAi?$AA?$AA@ 00000001800247a0     LIBCMT:winapinls.obj
 0002:000057b0       ??_C@_1M@NJBEEJNL@?$AAd?$AAe?$AA?9?$AAl?$AAu?$AA?$AA@ 00000001800247b0     LIBCMT:winapinls.obj
 0002:000057c0       ??_C@_1O@GNNELBAP@?$AAd?$AAi?$AAv?$AA?9?$AAm?$AAv?$AA?$AA@ 00000001800247c0     LIBCMT:winapinls.obj
 0002:000057d0       ??_C@_1M@EJLEOGAE@?$AAe?$AAl?$AA?9?$AAg?$AAr?$AA?$AA@ 00000001800247d0     LIBCMT:winapinls.obj
 0002:000057e0       ??_C@_1M@GMPONJN@?$AAe?$AAn?$AA?9?$AAa?$AAu?$AA?$AA@ 00000001800247e0     LIBCMT:winapinls.obj
 0002:000057f0       ??_C@_1M@NIDIIPGF@?$AAe?$AAn?$AA?9?$AAb?$AAz?$AA?$AA@ 00000001800247f0     LIBCMT:winapinls.obj
 0002:00005800       ??_C@_1M@JEHMIMFO@?$AAe?$AAn?$AA?9?$AAc?$AAa?$AA?$AA@ 0000000180024800     LIBCMT:winapinls.obj
 0002:00005810       ??_C@_1M@IGMJCDLA@?$AAe?$AAn?$AA?9?$AAc?$AAb?$AA?$AA@ 0000000180024810     LIBCMT:winapinls.obj
 0002:00005820       ??_C@_1M@BNFIGBKG@?$AAe?$AAn?$AA?9?$AAg?$AAb?$AA?$AA@ 0000000180024820     LIBCMT:winapinls.obj
 0002:00005830       ??_C@_1M@LKIFDIGP@?$AAe?$AAn?$AA?9?$AAi?$AAe?$AA?$AA@ 0000000180024830     LIBCMT:winapinls.obj
 0002:00005840       ??_C@_1M@PJKFGCCO@?$AAe?$AAn?$AA?9?$AAj?$AAm?$AA?$AA@ 0000000180024840     LIBCMT:winapinls.obj
 0002:00005850       ??_C@_1M@KPPKEPBO@?$AAe?$AAn?$AA?9?$AAn?$AAz?$AA?$AA@ 0000000180024850     LIBCMT:winapinls.obj
 0002:00005860       ??_C@_1M@GMDGLDOB@?$AAe?$AAn?$AA?9?$AAp?$AAh?$AA?$AA@ 0000000180024860     LIBCMT:winapinls.obj
 0002:00005870       ??_C@_1M@ONGIBJNA@?$AAe?$AAn?$AA?9?$AAt?$AAt?$AA?$AA@ 0000000180024870     LIBCMT:winapinls.obj
 0002:00005880       ??_C@_1M@LLODPCMM@?$AAe?$AAn?$AA?9?$AAu?$AAs?$AA?$AA@ 0000000180024880     LIBCMT:winapinls.obj
 0002:00005890       ??_C@_1M@LAKFNPAN@?$AAe?$AAn?$AA?9?$AAz?$AAa?$AA?$AA@ 0000000180024890     LIBCMT:winapinls.obj
 0002:000058a0       ??_C@_1M@MFNHNHEO@?$AAe?$AAn?$AA?9?$AAz?$AAw?$AA?$AA@ 00000001800248a0     LIBCMT:winapinls.obj
 0002:000058b0       ??_C@_1M@EJEINPHM@?$AAe?$AAs?$AA?9?$AAa?$AAr?$AA?$AA@ 00000001800248b0     LIBCMT:winapinls.obj
 0002:000058c0       ??_C@_1M@GNKPCCJA@?$AAe?$AAs?$AA?9?$AAb?$AAo?$AA?$AA@ 00000001800248c0     LIBCMT:winapinls.obj
 0002:000058d0       ??_C@_1M@LEEGFONL@?$AAe?$AAs?$AA?9?$AAc?$AAl?$AA?$AA@ 00000001800248d0     LIBCMT:winapinls.obj
 0002:000058e0       ??_C@_1M@KGPDPBDF@?$AAe?$AAs?$AA?9?$AAc?$AAo?$AA?$AA@ 00000001800248e0     LIBCMT:winapinls.obj
 0002:000058f0       ??_C@_1M@EIAHOHH@?$AAe?$AAs?$AA?9?$AAc?$AAr?$AA?$AA@ 00000001800248f0     LIBCMT:winapinls.obj
 0002:00005900       ??_C@_1M@LLPGMBIN@?$AAe?$AAs?$AA?9?$AAd?$AAo?$AA?$AA@ 0000000180024900     LIBCMT:winapinls.obj
 0002:00005910       ??_C@_1M@DKHMKNJA@?$AAe?$AAs?$AA?9?$AAe?$AAc?$AA?$AA@ 0000000180024910     LIBCMT:winapinls.obj
 0002:00005920       ??_C@_1M@GKGFPKAP@?$AAe?$AAs?$AA?9?$AAe?$AAs?$AA?$AA@ 0000000180024920     LIBCMT:winapinls.obj
 0002:00005930       ??_C@_1M@LKHKGDLN@?$AAe?$AAs?$AA?9?$AAg?$AAt?$AA?$AA@ 0000000180024930     LIBCMT:winapinls.obj
 0002:00005940       ??_C@_1M@HEIIGGJD@?$AAe?$AAs?$AA?9?$AAh?$AAn?$AA?$AA@ 0000000180024940     LIBCMT:winapinls.obj
 0002:00005950       ??_C@_1M@FBDHPPGD@?$AAe?$AAs?$AA?9?$AAm?$AAx?$AA?$AA@ 0000000180024950     LIBCMT:winapinls.obj
 0002:00005960       ??_C@_1M@DPAGLNDH@?$AAe?$AAs?$AA?9?$AAn?$AAi?$AA?$AA@ 0000000180024960     LIBCMT:winapinls.obj
 0002:00005970       ??_C@_1M@MDGOPGDD@?$AAe?$AAs?$AA?9?$AAp?$AAa?$AA?$AA@ 0000000180024970     LIBCMT:winapinls.obj
 0002:00005980       ??_C@_1M@EMAMGBGE@?$AAe?$AAs?$AA?9?$AAp?$AAe?$AA?$AA@ 0000000180024980     LIBCMT:winapinls.obj
 0002:00005990       ??_C@_1M@IBMCAOEC@?$AAe?$AAs?$AA?9?$AAp?$AAr?$AA?$AA@ 0000000180024990     LIBCMT:winapinls.obj
 0002:000059a0       ??_C@_1M@FGMDIJED@?$AAe?$AAs?$AA?9?$AAp?$AAy?$AA?$AA@ 00000001800249a0     LIBCMT:winapinls.obj
 0002:000059b0       ??_C@_1M@IIDEOLLL@?$AAe?$AAs?$AA?9?$AAs?$AAv?$AA?$AA@ 00000001800249b0     LIBCMT:winapinls.obj
 0002:000059c0       ??_C@_1M@GAOBIPA@?$AAe?$AAs?$AA?9?$AAu?$AAy?$AA?$AA@ 00000001800249c0     LIBCMT:winapinls.obj
 0002:000059d0       ??_C@_1M@JKFFICHJ@?$AAe?$AAs?$AA?9?$AAv?$AAe?$AA?$AA@ 00000001800249d0     LIBCMT:winapinls.obj
 0002:000059e0       ??_C@_1M@PNMLOJDF@?$AAe?$AAt?$AA?9?$AAe?$AAe?$AA?$AA@ 00000001800249e0     LIBCMT:winapinls.obj
 0002:000059f0       ??_C@_1M@GHHLIKEI@?$AAe?$AAu?$AA?9?$AAe?$AAs?$AA?$AA@ 00000001800249f0     LIBCMT:winapinls.obj
 0002:00005a00       ??_C@_1M@PBNONODE@?$AAf?$AAa?$AA?9?$AAi?$AAr?$AA?$AA@ 0000000180024a00     LIBCMT:winapinls.obj
 0002:00005a10       ??_C@_1M@JEEHPMIL@?$AAf?$AAi?$AA?9?$AAf?$AAi?$AA?$AA@ 0000000180024a10     LIBCMT:winapinls.obj
 0002:00005a20       ??_C@_1M@LMDCNDBA@?$AAf?$AAo?$AA?9?$AAf?$AAo?$AA?$AA@ 0000000180024a20     LIBCMT:winapinls.obj
 0002:00005a30       ??_C@_1M@JKEOHLDK@?$AAf?$AAr?$AA?9?$AAb?$AAe?$AA?$AA@ 0000000180024a30     LIBCMT:winapinls.obj
 0002:00005a40       ??_C@_1M@NOHADPMI@?$AAf?$AAr?$AA?9?$AAc?$AAa?$AA?$AA@ 0000000180024a40     LIBCMT:winapinls.obj
 0002:00005a50       ??_C@_1M@KDHIHAEC@?$AAf?$AAr?$AA?9?$AAc?$AAh?$AA?$AA@ 0000000180024a50     LIBCMT:winapinls.obj
 0002:00005a60       ??_C@_1M@MMBBFGAK@?$AAf?$AAr?$AA?9?$AAf?$AAr?$AA?$AA@ 0000000180024a60     LIBCMT:winapinls.obj
 0002:00005a70       ??_C@_1M@PAFNENNF@?$AAf?$AAr?$AA?9?$AAl?$AAu?$AA?$AA@ 0000000180024a70     LIBCMT:winapinls.obj
 0002:00005a80       ??_C@_1M@EOHDJGDD@?$AAf?$AAr?$AA?9?$AAm?$AAc?$AA?$AA@ 0000000180024a80     LIBCMT:winapinls.obj
 0002:00005a90       ??_C@_1M@FAPLLOPF@?$AAg?$AAl?$AA?9?$AAe?$AAs?$AA?$AA@ 0000000180024a90     LIBCMT:winapinls.obj
 0002:00005aa0       ??_C@_1M@FOPBFLOO@?$AAg?$AAu?$AA?9?$AAi?$AAn?$AA?$AA@ 0000000180024aa0     LIBCMT:winapinls.obj
 0002:00005ab0       ??_C@_1M@KBMCINPM@?$AAh?$AAe?$AA?9?$AAi?$AAl?$AA?$AA@ 0000000180024ab0     LIBCMT:winapinls.obj
 0002:00005ac0       ??_C@_1M@BBPHKFPJ@?$AAh?$AAi?$AA?9?$AAi?$AAn?$AA?$AA@ 0000000180024ac0     LIBCMT:winapinls.obj
 0002:00005ad0       ??_C@_1M@PMBNDPHD@?$AAh?$AAr?$AA?9?$AAb?$AAa?$AA?$AA@ 0000000180024ad0     LIBCMT:winapinls.obj
 0002:00005ae0       ??_C@_1M@BPCKOEGE@?$AAh?$AAr?$AA?9?$AAh?$AAr?$AA?$AA@ 0000000180024ae0     LIBCMT:winapinls.obj
 0002:00005af0       ??_C@_1M@GACBMHKE@?$AAh?$AAu?$AA?9?$AAh?$AAu?$AA?$AA@ 0000000180024af0     LIBCMT:winapinls.obj
 0002:00005b00       ??_C@_1M@MILPAJJC@?$AAh?$AAy?$AA?9?$AAa?$AAm?$AA?$AA@ 0000000180024b00     LIBCMT:winapinls.obj
 0002:00005b10       ??_C@_1M@BABBICEC@?$AAi?$AAd?$AA?9?$AAi?$AAd?$AA?$AA@ 0000000180024b10     LIBCMT:winapinls.obj
 0002:00005b20       ??_C@_1M@BIKNHHPF@?$AAi?$AAs?$AA?9?$AAi?$AAs?$AA?$AA@ 0000000180024b20     LIBCMT:winapinls.obj
 0002:00005b30       ??_C@_1M@NMPCJPHE@?$AAi?$AAt?$AA?9?$AAc?$AAh?$AA?$AA@ 0000000180024b30     LIBCMT:winapinls.obj
 0002:00005b40       ??_C@_1M@GHKGFEDF@?$AAi?$AAt?$AA?9?$AAi?$AAt?$AA?$AA@ 0000000180024b40     LIBCMT:winapinls.obj
 0002:00005b50       ??_C@_1M@NIEJCJJA@?$AAj?$AAa?$AA?9?$AAj?$AAp?$AA?$AA@ 0000000180024b50     LIBCMT:winapinls.obj
 0002:00005b60       ??_C@_1M@JILFNBIM@?$AAk?$AAa?$AA?9?$AAg?$AAe?$AA?$AA@ 0000000180024b60     LIBCMT:winapinls.obj
 0002:00005b70       ??_C@_1M@PACPMGPH@?$AAk?$AAk?$AA?9?$AAk?$AAz?$AA?$AA@ 0000000180024b70     LIBCMT:winapinls.obj
 0002:00005b80       ??_C@_1M@IELFGMHA@?$AAk?$AAn?$AA?9?$AAi?$AAn?$AA?$AA@ 0000000180024b80     LIBCMT:winapinls.obj
 0002:00005b90       ??_C@_1O@IBBJHCH@?$AAk?$AAo?$AAk?$AA?9?$AAi?$AAn?$AA?$AA@ 0000000180024b90     LIBCMT:winapinls.obj
 0002:00005ba0       ??_C@_1M@DMHAEOGC@?$AAk?$AAo?$AA?9?$AAk?$AAr?$AA?$AA@ 0000000180024ba0     LIBCMT:winapinls.obj
 0002:00005bb0       ??_C@_1M@HBAHBIGA@?$AAk?$AAy?$AA?9?$AAk?$AAg?$AA?$AA@ 0000000180024bb0     LIBCMT:winapinls.obj
 0002:00005bc0       ??_C@_1M@KPMILCJG@?$AAl?$AAt?$AA?9?$AAl?$AAt?$AA?$AA@ 0000000180024bc0     LIBCMT:winapinls.obj
 0002:00005bd0       ??_C@_1M@BDEKKCA@?$AAl?$AAv?$AA?9?$AAl?$AAv?$AA?$AA@ 0000000180024bd0     LIBCMT:winapinls.obj
 0002:00005be0       ??_C@_1M@ELCKCCJJ@?$AAm?$AAi?$AA?9?$AAn?$AAz?$AA?$AA@ 0000000180024be0     LIBCMT:winapinls.obj
 0002:00005bf0       ??_C@_1M@CBOOLAPA@?$AAm?$AAk?$AA?9?$AAm?$AAk?$AA?$AA@ 0000000180024bf0     LIBCMT:winapinls.obj
 0002:00005c00       ??_C@_1M@GPHNBJKN@?$AAm?$AAl?$AA?9?$AAi?$AAn?$AA?$AA@ 0000000180024c00     LIBCMT:winapinls.obj
 0002:00005c10       ??_C@_1M@PABJILIG@?$AAm?$AAn?$AA?9?$AAm?$AAn?$AA?$AA@ 0000000180024c10     LIBCMT:winapinls.obj
 0002:00005c20       ??_C@_1M@FGBKKIPG@?$AAm?$AAr?$AA?9?$AAi?$AAn?$AA?$AA@ 0000000180024c20     LIBCMT:winapinls.obj
 0002:00005c30       ??_C@_1M@NDBPDDAL@?$AAm?$AAs?$AA?9?$AAb?$AAn?$AA?$AA@ 0000000180024c30     LIBCMT:winapinls.obj
 0002:00005c40       ??_C@_1M@OPIHOOPI@?$AAm?$AAs?$AA?9?$AAm?$AAy?$AA?$AA@ 0000000180024c40     LIBCMT:winapinls.obj
 0002:00005c50       ??_C@_1M@PPDBCNFM@?$AAm?$AAt?$AA?9?$AAm?$AAt?$AA?$AA@ 0000000180024c50     LIBCMT:winapinls.obj
 0002:00005c60       ??_C@_1M@KDJDKMDD@?$AAn?$AAb?$AA?9?$AAn?$AAo?$AA?$AA@ 0000000180024c60     LIBCMT:winapinls.obj
 0002:00005c70       ??_C@_1M@KFCFLMJP@?$AAn?$AAl?$AA?9?$AAb?$AAe?$AA?$AA@ 0000000180024c70     LIBCMT:winapinls.obj
 0002:00005c80       ??_C@_1M@KPOPDDGO@?$AAn?$AAl?$AA?9?$AAn?$AAl?$AA?$AA@ 0000000180024c80     LIBCMT:winapinls.obj
 0002:00005c90       ??_C@_1M@LJKPEMLN@?$AAn?$AAn?$AA?9?$AAn?$AAo?$AA?$AA@ 0000000180024c90     LIBCMT:winapinls.obj
 0002:00005ca0       ??_C@_1M@BDGHHBFL@?$AAn?$AAs?$AA?9?$AAz?$AAa?$AA?$AA@ 0000000180024ca0     LIBCMT:winapinls.obj
 0002:00005cb0       ??_C@_1M@IDEHOAP@?$AAp?$AAa?$AA?9?$AAi?$AAn?$AA?$AA@ 0000000180024cb0     LIBCMT:winapinls.obj
 0002:00005cc0       ??_C@_1M@HDBKGOGH@?$AAp?$AAl?$AA?9?$AAp?$AAl?$AA?$AA@ 0000000180024cc0     LIBCMT:winapinls.obj
 0002:00005cd0       ??_C@_1M@LJLLCMEH@?$AAp?$AAt?$AA?9?$AAb?$AAr?$AA?$AA@ 0000000180024cd0     LIBCMT:winapinls.obj
 0002:00005ce0       ??_C@_1M@NCMONAAL@?$AAp?$AAt?$AA?9?$AAp?$AAt?$AA?$AA@ 0000000180024ce0     LIBCMT:winapinls.obj
 0002:00005cf0       ??_C@_1O@EAKMAJDN@?$AAq?$AAu?$AAz?$AA?9?$AAb?$AAo?$AA?$AA@ 0000000180024cf0     LIBCMT:winapinls.obj
 0002:00005d00       ??_C@_1O@BHHPIGDN@?$AAq?$AAu?$AAz?$AA?9?$AAe?$AAc?$AA?$AA@ 0000000180024d00     LIBCMT:winapinls.obj
 0002:00005d10       ??_C@_1O@GBAPEKMJ@?$AAq?$AAu?$AAz?$AA?9?$AAp?$AAe?$AA?$AA@ 0000000180024d10     LIBCMT:winapinls.obj
 0002:00005d20       ??_C@_1M@CLGLEFBO@?$AAr?$AAo?$AA?9?$AAr?$AAo?$AA?$AA@ 0000000180024d20     LIBCMT:winapinls.obj
 0002:00005d30       ??_C@_1M@CEEDODME@?$AAr?$AAu?$AA?9?$AAr?$AAu?$AA?$AA@ 0000000180024d30     LIBCMT:winapinls.obj
 0002:00005d40       ??_C@_1M@HPKKKMPP@?$AAs?$AAa?$AA?9?$AAi?$AAn?$AA?$AA@ 0000000180024d40     LIBCMT:winapinls.obj
 0002:00005d50       ??_C@_1M@BKMAIGOJ@?$AAs?$AAe?$AA?9?$AAf?$AAi?$AA?$AA@ 0000000180024d50     LIBCMT:winapinls.obj
 0002:00005d60       ??_C@_1M@NDPIFLFI@?$AAs?$AAe?$AA?9?$AAn?$AAo?$AA?$AA@ 0000000180024d60     LIBCMT:winapinls.obj
 0002:00005d70       ??_C@_1M@DANKKHJ@?$AAs?$AAe?$AA?9?$AAs?$AAe?$AA?$AA@ 0000000180024d70     LIBCMT:winapinls.obj
 0002:00005d80       ??_C@_1M@PNBLONPJ@?$AAs?$AAk?$AA?9?$AAs?$AAk?$AA?$AA@ 0000000180024d80     LIBCMT:winapinls.obj
 0002:00005d90       ??_C@_1M@LFMODOAL@?$AAs?$AAl?$AA?9?$AAs?$AAi?$AA?$AA@ 0000000180024d90     LIBCMT:winapinls.obj
 0002:00005da0       ??_C@_1O@DFKOMPG@?$AAs?$AAm?$AAa?$AA?9?$AAn?$AAo?$AA?$AA@ 0000000180024da0     LIBCMT:winapinls.obj
 0002:00005db0       ??_C@_1O@NDKPBNNH@?$AAs?$AAm?$AAa?$AA?9?$AAs?$AAe?$AA?$AA@ 0000000180024db0     LIBCMT:winapinls.obj
 0002:00005dc0       ??_C@_1O@PLLKBHAB@?$AAs?$AAm?$AAj?$AA?9?$AAn?$AAo?$AA?$AA@ 0000000180024dc0     LIBCMT:winapinls.obj
 0002:00005dd0       ??_C@_1O@CLEPOGCA@?$AAs?$AAm?$AAj?$AA?9?$AAs?$AAe?$AA?$AA@ 0000000180024dd0     LIBCMT:winapinls.obj
 0002:00005de0       ??_C@_1O@DLGJGKMK@?$AAs?$AAm?$AAn?$AA?9?$AAf?$AAi?$AA?$AA@ 0000000180024de0     LIBCMT:winapinls.obj
 0002:00005df0       ??_C@_1O@OJDJGAJC@?$AAs?$AAm?$AAs?$AA?9?$AAf?$AAi?$AA?$AA@ 0000000180024df0     LIBCMT:winapinls.obj
 0002:00005e00       ??_C@_1M@BOFOGHPB@?$AAs?$AAq?$AA?9?$AAa?$AAl?$AA?$AA@ 0000000180024e00     LIBCMT:winapinls.obj
 0002:00005e10       ??_C@_1BG@LJBBIPGB@?$AAs?$AAr?$AA?9?$AAb?$AAa?$AA?9?$AAc?$AAy?$AAr?$AAl?$AA?$AA@ 0000000180024e10     LIBCMT:winapinls.obj
 0002:00005e28       ??_C@_1BG@JLBENFOE@?$AAs?$AAr?$AA?9?$AAb?$AAa?$AA?9?$AAl?$AAa?$AAt?$AAn?$AA?$AA@ 0000000180024e28     LIBCMT:winapinls.obj
 0002:00005e40       ??_C@_1BG@KODPNHE@?$AAs?$AAr?$AA?9?$AAs?$AAp?$AA?9?$AAc?$AAy?$AAr?$AAl?$AA?$AA@ 0000000180024e40     LIBCMT:winapinls.obj
 0002:00005e58       ??_C@_1BG@CIOGKHPB@?$AAs?$AAr?$AA?9?$AAs?$AAp?$AA?9?$AAl?$AAa?$AAt?$AAn?$AA?$AA@ 0000000180024e58     LIBCMT:winapinls.obj
 0002:00005e70       ??_C@_1M@NGFJLMAC@?$AAs?$AAv?$AA?9?$AAf?$AAi?$AA?$AA@ 0000000180024e70     LIBCMT:winapinls.obj
 0002:00005e80       ??_C@_1M@MPJEJAJC@?$AAs?$AAv?$AA?9?$AAs?$AAe?$AA?$AA@ 0000000180024e80     LIBCMT:winapinls.obj
 0002:00005e90       ??_C@_1M@MPNDHLFK@?$AAs?$AAw?$AA?9?$AAk?$AAe?$AA?$AA@ 0000000180024e90     LIBCMT:winapinls.obj
 0002:00005ea0       ??_C@_1O@KOHBJJI@?$AAs?$AAy?$AAr?$AA?9?$AAs?$AAy?$AA?$AA@ 0000000180024ea0     LIBCMT:winapinls.obj
 0002:00005eb0       ??_C@_1M@LDCEFHA@?$AAt?$AAa?$AA?9?$AAi?$AAn?$AA?$AA@ 0000000180024eb0     LIBCMT:winapinls.obj
 0002:00005ec0       ??_C@_1M@CNJOFAK@?$AAt?$AAe?$AA?9?$AAi?$AAn?$AA?$AA@ 0000000180024ec0     LIBCMT:winapinls.obj
 0002:00005ed0       ??_C@_1M@GNAECACD@?$AAt?$AAh?$AA?9?$AAt?$AAh?$AA?$AA@ 0000000180024ed0     LIBCMT:winapinls.obj
 0002:00005ee0       ??_C@_1M@CHBIHOJO@?$AAt?$AAn?$AA?9?$AAz?$AAa?$AA?$AA@ 0000000180024ee0     LIBCMT:winapinls.obj
 0002:00005ef0       ??_C@_1M@GCCMIGPJ@?$AAt?$AAr?$AA?9?$AAt?$AAr?$AA?$AA@ 0000000180024ef0     LIBCMT:winapinls.obj
 0002:00005f00       ??_C@_1M@CELMCNBK@?$AAt?$AAt?$AA?9?$AAr?$AAu?$AA?$AA@ 0000000180024f00     LIBCMT:winapinls.obj
 0002:00005f10       ??_C@_1M@KLMCELGA@?$AAu?$AAk?$AA?9?$AAu?$AAa?$AA?$AA@ 0000000180024f10     LIBCMT:winapinls.obj
 0002:00005f20       ??_C@_1M@EPAJJAJF@?$AAu?$AAr?$AA?9?$AAp?$AAk?$AA?$AA@ 0000000180024f20     LIBCMT:winapinls.obj
 0002:00005f30       ??_C@_1BG@GEGPMCDJ@?$AAu?$AAz?$AA?9?$AAu?$AAz?$AA?9?$AAc?$AAy?$AAr?$AAl?$AA?$AA@ 0000000180024f30     LIBCMT:winapinls.obj
 0002:00005f48       ??_C@_1BG@EGGKJILM@?$AAu?$AAz?$AA?9?$AAu?$AAz?$AA?9?$AAl?$AAa?$AAt?$AAn?$AA?$AA@ 0000000180024f48     LIBCMT:winapinls.obj
 0002:00005f60       ??_C@_1M@GFOCLFF@?$AAv?$AAi?$AA?9?$AAv?$AAn?$AA?$AA@ 0000000180024f60     LIBCMT:winapinls.obj
 0002:00005f70       ??_C@_1M@CPAMEDFI@?$AAx?$AAh?$AA?9?$AAz?$AAa?$AA?$AA@ 0000000180024f70     LIBCMT:winapinls.obj
 0002:00005f80       ??_C@_1O@EBKIFIGN@?$AAz?$AAh?$AA?9?$AAc?$AAh?$AAs?$AA?$AA@ 0000000180024f80     LIBCMT:winapinls.obj
 0002:00005f90       ??_C@_1O@NMHPGANE@?$AAz?$AAh?$AA?9?$AAc?$AAh?$AAt?$AA?$AA@ 0000000180024f90     LIBCMT:winapinls.obj
 0002:00005fa0       ??_C@_1M@LPINJOMC@?$AAz?$AAh?$AA?9?$AAc?$AAn?$AA?$AA@ 0000000180024fa0     LIBCMT:winapinls.obj
 0002:00005fb0       ??_C@_1M@OCJEJODD@?$AAz?$AAh?$AA?9?$AAh?$AAk?$AA?$AA@ 0000000180024fb0     LIBCMT:winapinls.obj
 0002:00005fc0       ??_C@_1M@DNDLJINH@?$AAz?$AAh?$AA?9?$AAm?$AAo?$AA?$AA@ 0000000180024fc0     LIBCMT:winapinls.obj
 0002:00005fd0       ??_C@_1M@MBFDNDND@?$AAz?$AAh?$AA?9?$AAs?$AAg?$AA?$AA@ 0000000180024fd0     LIBCMT:winapinls.obj
 0002:00005fe0       ??_C@_1M@IMEPLEPE@?$AAz?$AAh?$AA?9?$AAt?$AAw?$AA?$AA@ 0000000180024fe0     LIBCMT:winapinls.obj
 0002:00005ff0       ??_C@_1M@BBGHNHJP@?$AAz?$AAu?$AA?9?$AAz?$AAa?$AA?$AA@ 0000000180024ff0     LIBCMT:winapinls.obj
 0002:00005ffc       ??_C@_04EIAKFFMI@sqrt?$AA@ 0000000180024ffc     LIBCMT:sqrt.obj
 0002:00006018       ??_C@_1BG@GOEBHBDC@?$AAU?$AAS?$AAE?$AAR?$AA3?$AA2?$AA?4?$AAD?$AAL?$AAL?$AA?$AA@ 0000000180025018     LIBCMT:crtmboxw.obj
 0002:00006030       ??_C@_0M@DLDCCGNP@MessageBoxW?$AA@ 0000000180025030     LIBCMT:crtmboxw.obj
 0002:00006040       ??_C@_0BA@HNOPNCHB@GetActiveWindow?$AA@ 0000000180025040     LIBCMT:crtmboxw.obj
 0002:00006050       ??_C@_0BD@HHGDFDBJ@GetLastActivePopup?$AA@ 0000000180025050     LIBCMT:crtmboxw.obj
 0002:00006068       ??_C@_0BK@DEKFELLI@GetUserObjectInformationW?$AA@ 0000000180025068     LIBCMT:crtmboxw.obj
 0002:00006088       ??_C@_0BI@DFKBFLJE@GetProcessWindowStation?$AA@ 0000000180025088     LIBCMT:crtmboxw.obj
 0002:00006210       ??_C@_1FK@PGACCAFB@?$AAR?$AA6?$AA0?$AA0?$AA2?$AA?$AN?$AA?6?$AA?9?$AA?5?$AAf?$AAl?$AAo?$AAa?$AAt?$AAi?$AAn?$AAg?$AA?5?$AAp?$AAo?$AAi?$AAn?$AAt?$AA?5?$AAs?$AAu?$AAp?$AAp?$AAo?$AAr?$AAt?$AA?5@ 0000000180025210     LIBCMT:crt0msg.obj
 0002:00006270       ??_C@_1FE@LLNEDJMD@?$AAR?$AA6?$AA0?$AA0?$AA8?$AA?$AN?$AA?6?$AA?9?$AA?5?$AAn?$AAo?$AAt?$AA?5?$AAe?$AAn?$AAo?$AAu?$AAg?$AAh?$AA?5?$AAs?$AAp?$AAa?$AAc?$AAe?$AA?5?$AAf?$AAo?$AAr?$AA?5?$AAa?$AAr@ 0000000180025270     LIBCMT:crt0msg.obj
 0002:000062d0       ??_C@_1FI@HONFMGBI@?$AAR?$AA6?$AA0?$AA0?$AA9?$AA?$AN?$AA?6?$AA?9?$AA?5?$AAn?$AAo?$AAt?$AA?5?$AAe?$AAn?$AAo?$AAu?$AAg?$AAh?$AA?5?$AAs?$AAp?$AAa?$AAc?$AAe?$AA?5?$AAf?$AAo?$AAr?$AA?5?$AAe?$AAn@ 00000001800252d0     LIBCMT:crt0msg.obj
 0002:00006330       ??_C@_1EG@BEHAGFJD@?$AAR?$AA6?$AA0?$AA1?$AA0?$AA?$AN?$AA?6?$AA?9?$AA?5?$AAa?$AAb?$AAo?$AAr?$AAt?$AA?$CI?$AA?$CJ?$AA?5?$AAh?$AAa?$AAs?$AA?5?$AAb?$AAe?$AAe?$AAn?$AA?5?$AAc?$AAa?$AAl?$AAl?$AAe?$AAd@ 0000000180025330     LIBCMT:crt0msg.obj
 0002:00006380       ??_C@_1FI@LOGNIKDM@?$AAR?$AA6?$AA0?$AA1?$AA6?$AA?$AN?$AA?6?$AA?9?$AA?5?$AAn?$AAo?$AAt?$AA?5?$AAe?$AAn?$AAo?$AAu?$AAg?$AAh?$AA?5?$AAs?$AAp?$AAa?$AAc?$AAe?$AA?5?$AAf?$AAo?$AAr?$AA?5?$AAt?$AAh@ 0000000180025380     LIBCMT:crt0msg.obj
 0002:000063e0       ??_C@_1FK@BEOGODMC@?$AAR?$AA6?$AA0?$AA1?$AA7?$AA?$AN?$AA?6?$AA?9?$AA?5?$AAu?$AAn?$AAe?$AAx?$AAp?$AAe?$AAc?$AAt?$AAe?$AAd?$AA?5?$AAm?$AAu?$AAl?$AAt?$AAi?$AAt?$AAh?$AAr?$AAe?$AAa?$AAd?$AA?5@ 00000001800253e0     LIBCMT:crt0msg.obj
 0002:00006440       ??_C@_1EC@JIBHAOPH@?$AAR?$AA6?$AA0?$AA1?$AA8?$AA?$AN?$AA?6?$AA?9?$AA?5?$AAu?$AAn?$AAe?$AAx?$AAp?$AAe?$AAc?$AAt?$AAe?$AAd?$AA?5?$AAh?$AAe?$AAa?$AAp?$AA?5?$AAe?$AAr?$AAr?$AAo?$AAr?$AA?$AN?$AA?6@ 0000000180025440     LIBCMT:crt0msg.obj
 0002:00006490       ??_C@_1FC@ECHBIFBC@?$AAR?$AA6?$AA0?$AA1?$AA9?$AA?$AN?$AA?6?$AA?9?$AA?5?$AAu?$AAn?$AAa?$AAb?$AAl?$AAe?$AA?5?$AAt?$AAo?$AA?5?$AAo?$AAp?$AAe?$AAn?$AA?5?$AAc?$AAo?$AAn?$AAs?$AAo?$AAl?$AAe?$AA?5@ 0000000180025490     LIBCMT:crt0msg.obj
 0002:000064f0       ??_C@_1GK@FHCKBEFA@?$AAR?$AA6?$AA0?$AA2?$AA4?$AA?$AN?$AA?6?$AA?9?$AA?5?$AAn?$AAo?$AAt?$AA?5?$AAe?$AAn?$AAo?$AAu?$AAg?$AAh?$AA?5?$AAs?$AAp?$AAa?$AAc?$AAe?$AA?5?$AAf?$AAo?$AAr?$AA?5?$AA_?$AAo@ 00000001800254f0     LIBCMT:crt0msg.obj
 0002:00006560       ??_C@_1EM@MAADIHMB@?$AAR?$AA6?$AA0?$AA2?$AA5?$AA?$AN?$AA?6?$AA?9?$AA?5?$AAp?$AAu?$AAr?$AAe?$AA?5?$AAv?$AAi?$AAr?$AAt?$AAu?$AAa?$AAl?$AA?5?$AAf?$AAu?$AAn?$AAc?$AAt?$AAi?$AAo?$AAn?$AA?5?$AAc@ 0000000180025560     LIBCMT:crt0msg.obj
 0002:000065b0       ??_C@_1GK@MCAAGJMO@?$AAR?$AA6?$AA0?$AA2?$AA6?$AA?$AN?$AA?6?$AA?9?$AA?5?$AAn?$AAo?$AAt?$AA?5?$AAe?$AAn?$AAo?$AAu?$AAg?$AAh?$AA?5?$AAs?$AAp?$AAa?$AAc?$AAe?$AA?5?$AAf?$AAo?$AAr?$AA?5?$AAs?$AAt@ 00000001800255b0     LIBCMT:crt0msg.obj
 0002:00006620       ??_C@_1GK@MFGOKLAG@?$AAR?$AA6?$AA0?$AA2?$AA7?$AA?$AN?$AA?6?$AA?9?$AA?5?$AAn?$AAo?$AAt?$AA?5?$AAe?$AAn?$AAo?$AAu?$AAg?$AAh?$AA?5?$AAs?$AAp?$AAa?$AAc?$AAe?$AA?5?$AAf?$AAo?$AAr?$AA?5?$AAl?$AAo@ 0000000180025620     LIBCMT:crt0msg.obj
 0002:00006690       ??_C@_1EK@HHFLMAOL@?$AAR?$AA6?$AA0?$AA2?$AA8?$AA?$AN?$AA?6?$AA?9?$AA?5?$AAu?$AAn?$AAa?$AAb?$AAl?$AAe?$AA?5?$AAt?$AAo?$AA?5?$AAi?$AAn?$AAi?$AAt?$AAi?$AAa?$AAl?$AAi?$AAz?$AAe?$AA?5?$AAh?$AAe@ 0000000180025690     LIBCMT:crt0msg.obj
 0002:000066e0       ??_C@_1DO@BMFCDCD@?$AAR?$AA6?$AA0?$AA3?$AA0?$AA?$AN?$AA?6?$AA?9?$AA?5?$AAC?$AAR?$AAT?$AA?5?$AAn?$AAo?$AAt?$AA?5?$AAi?$AAn?$AAi?$AAt?$AAi?$AAa?$AAl?$AAi?$AAz?$AAe?$AAd?$AA?$AN?$AA?6?$AA?$AA@ 00000001800256e0     LIBCMT:crt0msg.obj
 0002:00006720       ??_C@_1MG@ENCOOIDF@?$AAR?$AA6?$AA0?$AA3?$AA1?$AA?$AN?$AA?6?$AA?9?$AA?5?$AAA?$AAt?$AAt?$AAe?$AAm?$AAp?$AAt?$AA?5?$AAt?$AAo?$AA?5?$AAi?$AAn?$AAi?$AAt?$AAi?$AAa?$AAl?$AAi?$AAz?$AAe?$AA?5?$AAt@ 0000000180025720     LIBCMT:crt0msg.obj
 0002:000067f0       ??_C@_1GG@GOPILAJP@?$AAR?$AA6?$AA0?$AA3?$AA2?$AA?$AN?$AA?6?$AA?9?$AA?5?$AAn?$AAo?$AAt?$AA?5?$AAe?$AAn?$AAo?$AAu?$AAg?$AAh?$AA?5?$AAs?$AAp?$AAa?$AAc?$AAe?$AA?5?$AAf?$AAo?$AAr?$AA?5?$AAl?$AAo@ 00000001800257f0     LIBCMT:crt0msg.obj
 0002:00006860       ??_C@_1BOO@KGEDBGAJ@?$AAR?$AA6?$AA0?$AA3?$AA3?$AA?$AN?$AA?6?$AA?9?$AA?5?$AAA?$AAt?$AAt?$AAe?$AAm?$AAp?$AAt?$AA?5?$AAt?$AAo?$AA?5?$AAu?$AAs?$AAe?$AA?5?$AAM?$AAS?$AAI?$AAL?$AA?5?$AAc?$AAo?$AAd@ 0000000180025860     LIBCMT:crt0msg.obj
 0002:00006a50       ??_C@_1GG@MKFPEKFO@?$AAR?$AA6?$AA0?$AA3?$AA4?$AA?$AN?$AA?6?$AA?9?$AA?5?$AAi?$AAn?$AAc?$AAo?$AAn?$AAs?$AAi?$AAs?$AAt?$AAe?$AAn?$AAt?$AA?5?$AAo?$AAn?$AAe?$AAx?$AAi?$AAt?$AA?5?$AAb?$AAe?$AAg@ 0000000180025a50     LIBCMT:crt0msg.obj
 0002:00006ab8       ??_C@_1BO@BFCDCGC@?$AAD?$AAO?$AAM?$AAA?$AAI?$AAN?$AA?5?$AAe?$AAr?$AAr?$AAo?$AAr?$AA?$AN?$AA?6?$AA?$AA@ 0000000180025ab8     LIBCMT:crt0msg.obj
 0002:00006ad8       ??_C@_1BK@KMOMNAAI@?$AAS?$AAI?$AAN?$AAG?$AA?5?$AAe?$AAr?$AAr?$AAo?$AAr?$AA?$AN?$AA?6?$AA?$AA@ 0000000180025ad8     LIBCMT:crt0msg.obj
 0002:00006af8       ??_C@_1BM@JBBEPPHI@?$AAT?$AAL?$AAO?$AAS?$AAS?$AA?5?$AAe?$AAr?$AAr?$AAo?$AAr?$AA?$AN?$AA?6?$AA?$AA@ 0000000180025af8     LIBCMT:crt0msg.obj
 0002:00006b14       ??_C@_15JNBOKNOG@?$AA?$AN?$AA?6?$AA?$AA@ 0000000180025b14     LIBCMT:crt0msg.obj
 0002:00006b20       ??_C@_1BO@BKOMIGKJ@?$AAr?$AAu?$AAn?$AAt?$AAi?$AAm?$AAe?$AA?5?$AAe?$AAr?$AAr?$AAo?$AAr?$AA?5?$AA?$AA@ 0000000180025b20     LIBCMT:crt0msg.obj
 0002:00006b40       ??_C@_1DE@JNGNBFGO@?$AAR?$AAu?$AAn?$AAt?$AAi?$AAm?$AAe?$AA?5?$AAE?$AAr?$AAr?$AAo?$AAr?$AA?$CB?$AA?6?$AA?6?$AAP?$AAr?$AAo?$AAg?$AAr?$AAa?$AAm?$AA?3?$AA?5?$AA?$AA@ 0000000180025b40     LIBCMT:crt0msg.obj
 0002:00006b98       ??_C@_03KOEHGMDN@Sun?$AA@  0000000180025b98     LIBCMT:nlsdata.obj
 0002:00006b9c       ??_C@_03PDAGKDH@Mon?$AA@   0000000180025b9c     LIBCMT:nlsdata.obj
 0002:00006ba0       ??_C@_03NAGEINEP@Tue?$AA@  0000000180025ba0     LIBCMT:nlsdata.obj
 0002:00006ba4       ??_C@_03MHOMLAJA@Wed?$AA@  0000000180025ba4     LIBCMT:nlsdata.obj
 0002:00006ba8       ??_C@_03IOFIKPDN@Thu?$AA@  0000000180025ba8     LIBCMT:nlsdata.obj
 0002:00006bac       ??_C@_03IDIOELNC@Fri?$AA@  0000000180025bac     LIBCMT:nlsdata.obj
 0002:00006bb0       ??_C@_03FEFJNEK@Sat?$AA@   0000000180025bb0     LIBCMT:nlsdata.obj
 0002:00006bb4       ??_C@_06OOPIFAJ@Sunday?$AA@ 0000000180025bb4     LIBCMT:nlsdata.obj
 0002:00006bbc       ??_C@_06JLEDEDGH@Monday?$AA@ 0000000180025bbc     LIBCMT:nlsdata.obj
 0002:00006bc8       ??_C@_07BAAGCFCM@Tuesday?$AA@ 0000000180025bc8     LIBCMT:nlsdata.obj
 0002:00006bd0       ??_C@_09DLIGFAKA@Wednesday?$AA@ 0000000180025bd0     LIBCMT:nlsdata.obj
 0002:00006be0       ??_C@_08HACCIKIA@Thursday?$AA@ 0000000180025be0     LIBCMT:nlsdata.obj
 0002:00006bec       ??_C@_06JECMNKMI@Friday?$AA@ 0000000180025bec     LIBCMT:nlsdata.obj
 0002:00006bf8       ??_C@_08INBOOONO@Saturday?$AA@ 0000000180025bf8     LIBCMT:nlsdata.obj
 0002:00006c04       ??_C@_03JIHJHPIE@Jan?$AA@  0000000180025c04     LIBCMT:nlsdata.obj
 0002:00006c08       ??_C@_03HJBDCHOM@Feb?$AA@  0000000180025c08     LIBCMT:nlsdata.obj
 0002:00006c0c       ??_C@_03ODNJBKGA@Mar?$AA@  0000000180025c0c     LIBCMT:nlsdata.obj
 0002:00006c10       ??_C@_03LEOLGMJP@Apr?$AA@  0000000180025c10     LIBCMT:nlsdata.obj
 0002:00006c14       ??_C@_03CNMDKL@May?$AA@    0000000180025c14     LIBCMT:nlsdata.obj
 0002:00006c18       ??_C@_03IDFGHECI@Jun?$AA@  0000000180025c18     LIBCMT:nlsdata.obj
 0002:00006c1c       ??_C@_03LBGABGKK@Jul?$AA@  0000000180025c1c     LIBCMT:nlsdata.obj
 0002:00006c20       ??_C@_03IFJFEIGA@Aug?$AA@  0000000180025c20     LIBCMT:nlsdata.obj
 0002:00006c24       ??_C@_03GGCAPAJC@Sep?$AA@  0000000180025c24     LIBCMT:nlsdata.obj
 0002:00006c28       ??_C@_03BMAOKBAD@Oct?$AA@  0000000180025c28     LIBCMT:nlsdata.obj
 0002:00006c2c       ??_C@_03JPJOFNIA@Nov?$AA@  0000000180025c2c     LIBCMT:nlsdata.obj
 0002:00006c30       ??_C@_03MKABNOCG@Dec?$AA@  0000000180025c30     LIBCMT:nlsdata.obj
 0002:00006c38       ??_C@_07CGJPFGJA@January?$AA@ 0000000180025c38     LIBCMT:nlsdata.obj
 0002:00006c40       ??_C@_08GNJGEPFN@February?$AA@ 0000000180025c40     LIBCMT:nlsdata.obj
 0002:00006c4c       ??_C@_05HPCKOFNC@March?$AA@ 0000000180025c4c     LIBCMT:nlsdata.obj
 0002:00006c54       ??_C@_05DMJDNLEJ@April?$AA@ 0000000180025c54     LIBCMT:nlsdata.obj
 0002:00006c5c       ??_C@_04CNLMGBGM@June?$AA@ 0000000180025c5c     LIBCMT:nlsdata.obj
 0002:00006c64       ??_C@_04MIEPOIFP@July?$AA@ 0000000180025c64     LIBCMT:nlsdata.obj
 0002:00006c6c       ??_C@_06LBBHFDDG@August?$AA@ 0000000180025c6c     LIBCMT:nlsdata.obj
 0002:00006c78       ??_C@_09BHHEALKD@September?$AA@ 0000000180025c78     LIBCMT:nlsdata.obj
 0002:00006c88       ??_C@_07JJNFCEND@October?$AA@ 0000000180025c88     LIBCMT:nlsdata.obj
 0002:00006c90       ??_C@_08HCHEGEOA@November?$AA@ 0000000180025c90     LIBCMT:nlsdata.obj
 0002:00006ca0       ??_C@_08EDHMEBNP@December?$AA@ 0000000180025ca0     LIBCMT:nlsdata.obj
 0002:00006cac       ??_C@_02DEDBPAFC@AM?$AA@   0000000180025cac     LIBCMT:nlsdata.obj
 0002:00006cb0       ??_C@_02CJNFDJBF@PM?$AA@   0000000180025cb0     LIBCMT:nlsdata.obj
 0002:00006cb8       ??_C@_08BPBNCDIB@MM?1dd?1yy?$AA@ 0000000180025cb8     LIBCMT:nlsdata.obj
 0002:00006cc8       ??_C@_0BE@CKGJFCPC@dddd?0?5MMMM?5dd?0?5yyyy?$AA@ 0000000180025cc8     LIBCMT:nlsdata.obj
 0002:00006ce0       ??_C@_08JCCMCCIL@HH?3mm?3ss?$AA@ 0000000180025ce0     LIBCMT:nlsdata.obj
 0002:00006cf0       ??_C@_17MBGCMIPB@?$AAS?$AAu?$AAn?$AA?$AA@ 0000000180025cf0     LIBCMT:nlsdata.obj
 0002:00006cf8       ??_C@_17KBOMKBF@?$AAM?$AAo?$AAn?$AA?$AA@ 0000000180025cf8     LIBCMT:nlsdata.obj
 0002:00006d00       ??_C@_17BMKGEGOJ@?$AAT?$AAu?$AAe?$AA?$AA@ 0000000180025d00     LIBCMT:nlsdata.obj
 0002:00006d08       ??_C@_17CJEDCEPE@?$AAW?$AAe?$AAd?$AA?$AA@ 0000000180025d08     LIBCMT:nlsdata.obj
 0002:00006d10       ??_C@_17PDPHAADD@?$AAT?$AAh?$AAu?$AA?$AA@ 0000000180025d10     LIBCMT:nlsdata.obj
 0002:00006d18       ??_C@_17HFOLPPLP@?$AAF?$AAr?$AAi?$AA?$AA@ 0000000180025d18     LIBCMT:nlsdata.obj
 0002:00006d20       ??_C@_17GGIBDPIH@?$AAS?$AAa?$AAt?$AA?$AA@ 0000000180025d20     LIBCMT:nlsdata.obj
 0002:00006d28       ??_C@_1O@IHNHDHPB@?$AAS?$AAu?$AAn?$AAd?$AAa?$AAy?$AA?$AA@ 0000000180025d28     LIBCMT:nlsdata.obj
 0002:00006d38       ??_C@_1O@MMNBFLIA@?$AAM?$AAo?$AAn?$AAd?$AAa?$AAy?$AA?$AA@ 0000000180025d38     LIBCMT:nlsdata.obj
 0002:00006d48       ??_C@_1BA@ENFBFFEK@?$AAT?$AAu?$AAe?$AAs?$AAd?$AAa?$AAy?$AA?$AA@ 0000000180025d48     LIBCMT:nlsdata.obj
 0002:00006d58       ??_C@_1BE@EBOGMDOH@?$AAW?$AAe?$AAd?$AAn?$AAe?$AAs?$AAd?$AAa?$AAy?$AA?$AA@ 0000000180025d58     LIBCMT:nlsdata.obj
 0002:00006d70       ??_C@_1BC@HHMNLIHE@?$AAT?$AAh?$AAu?$AAr?$AAs?$AAd?$AAa?$AAy?$AA?$AA@ 0000000180025d70     LIBCMT:nlsdata.obj
 0002:00006d88       ??_C@_1O@PDICJHAG@?$AAF?$AAr?$AAi?$AAd?$AAa?$AAy?$AA?$AA@ 0000000180025d88     LIBCMT:nlsdata.obj
 0002:00006d98       ??_C@_1BC@ENMNNPAJ@?$AAS?$AAa?$AAt?$AAu?$AAr?$AAd?$AAa?$AAy?$AA?$AA@ 0000000180025d98     LIBCMT:nlsdata.obj
 0002:00006db0       ??_C@_17DKNBKCHM@?$AAJ?$AAa?$AAn?$AA?$AA@ 0000000180025db0     LIBCMT:nlsdata.obj
 0002:00006db8       ??_C@_17LMDJEKJN@?$AAF?$AAe?$AAb?$AA?$AA@ 0000000180025db8     LIBCMT:nlsdata.obj
 0002:00006dc0       ??_C@_17CKNLEDEC@?$AAM?$AAa?$AAr?$AA?$AA@ 0000000180025dc0     LIBCMT:nlsdata.obj
 0002:00006dc8       ??_C@_17LFPOIHDD@?$AAA?$AAp?$AAr?$AA?$AA@ 0000000180025dc8     LIBCMT:nlsdata.obj
 0002:00006dd0       ??_C@_17PNNKMEED@?$AAM?$AAa?$AAy?$AA?$AA@ 0000000180025dd0     LIBCMT:nlsdata.obj
 0002:00006dd8       ??_C@_17KCJGOCPB@?$AAJ?$AAu?$AAn?$AA?$AA@ 0000000180025dd8     LIBCMT:nlsdata.obj
 0002:00006de0       ??_C@_17IJPCKHK@?$AAJ?$AAu?$AAl?$AA?$AA@ 0000000180025de0     LIBCMT:nlsdata.obj
 0002:00006de8       ??_C@_17ICPELBCN@?$AAA?$AAu?$AAg?$AA?$AA@ 0000000180025de8     LIBCMT:nlsdata.obj
 0002:00006df0       ??_C@_17HCHCOKMG@?$AAS?$AAe?$AAp?$AA?$AA@ 0000000180025df0     LIBCMT:nlsdata.obj
 0002:00006df8       ??_C@_17FNLKOI@?$AAO?$AAc?$AAt?$AA?$AA@ 0000000180025df8     LIBCMT:nlsdata.obj
 0002:00006e00       ??_C@_17BBDMLCIG@?$AAN?$AAo?$AAv?$AA?$AA@ 0000000180025e00     LIBCMT:nlsdata.obj
 0002:00006e08       ??_C@_17EGKACKIF@?$AAD?$AAe?$AAc?$AA?$AA@ 0000000180025e08     LIBCMT:nlsdata.obj
 0002:00006e10       ??_C@_1BA@EFMEIEBA@?$AAJ?$AAa?$AAn?$AAu?$AAa?$AAr?$AAy?$AA?$AA@ 0000000180025e10     LIBCMT:nlsdata.obj
 0002:00006e20       ??_C@_1BC@JGDDFFAM@?$AAF?$AAe?$AAb?$AAr?$AAu?$AAa?$AAr?$AAy?$AA?$AA@ 0000000180025e20     LIBCMT:nlsdata.obj
 0002:00006e38       ??_C@_1M@IKEENEDF@?$AAM?$AAa?$AAr?$AAc?$AAh?$AA?$AA@ 0000000180025e38     LIBCMT:nlsdata.obj
 0002:00006e48       ??_C@_1M@GJNLMHFD@?$AAA?$AAp?$AAr?$AAi?$AAl?$AA?$AA@ 0000000180025e48     LIBCMT:nlsdata.obj
 0002:00006e58       ??_C@_19EPFLPGAP@?$AAJ?$AAu?$AAn?$AAe?$AA?$AA@ 0000000180025e58     LIBCMT:nlsdata.obj
 0002:00006e68       ??_C@_19BIFMLPCD@?$AAJ?$AAu?$AAl?$AAy?$AA?$AA@ 0000000180025e68     LIBCMT:nlsdata.obj
 0002:00006e78       ??_C@_1O@PAHLKOAC@?$AAA?$AAu?$AAg?$AAu?$AAs?$AAt?$AA?$AA@ 0000000180025e78     LIBCMT:nlsdata.obj
 0002:00006e88       ??_C@_1BE@DKAAMBJL@?$AAS?$AAe?$AAp?$AAt?$AAe?$AAm?$AAb?$AAe?$AAr?$AA?$AA@ 0000000180025e88     LIBCMT:nlsdata.obj
 0002:00006ea0       ??_C@_1BA@EPANDLNG@?$AAO?$AAc?$AAt?$AAo?$AAb?$AAe?$AAr?$AA?$AA@ 0000000180025ea0     LIBCMT:nlsdata.obj
 0002:00006eb0       ??_C@_1BC@BGLIFPF@?$AAN?$AAo?$AAv?$AAe?$AAm?$AAb?$AAe?$AAr?$AA?$AA@ 0000000180025eb0     LIBCMT:nlsdata.obj
 0002:00006ec8       ??_C@_1BC@FEMKIFH@?$AAD?$AAe?$AAc?$AAe?$AAm?$AAb?$AAe?$AAr?$AA?$AA@ 0000000180025ec8     LIBCMT:nlsdata.obj
 0002:00006edc       ??_C@_15ODEHAHHF@?$AAA?$AAM?$AA?$AA@ 0000000180025edc     LIBCMT:nlsdata.obj
 0002:00006ee4       ??_C@_15CLMNNGEL@?$AAP?$AAM?$AA?$AA@ 0000000180025ee4     LIBCMT:nlsdata.obj
 0002:00006ef0       ??_C@_1BC@IEBCMHCM@?$AAM?$AAM?$AA?1?$AAd?$AAd?$AA?1?$AAy?$AAy?$AA?$AA@ 0000000180025ef0     LIBCMT:nlsdata.obj
 0002:00006f08       ??_C@_1CI@KNAKOEBC@?$AAd?$AAd?$AAd?$AAd?$AA?0?$AA?5?$AAM?$AAM?$AAM?$AAM?$AA?5?$AAd?$AAd?$AA?0?$AA?5?$AAy?$AAy?$AAy?$AAy?$AA?$AA@ 0000000180025f08     LIBCMT:nlsdata.obj
 0002:00006f30       ??_C@_1BC@GDGBMEMK@?$AAH?$AAH?$AA?3?$AAm?$AAm?$AA?3?$AAs?$AAs?$AA?$AA@ 0000000180025f30     LIBCMT:nlsdata.obj
 0002:00006f50       __lc_category              0000000180025f50     LIBCMT:wsetloca.obj
 0002:00006fe0       ??_C@_1O@GIFLHMA@?$AAL?$AAC?$AA_?$AAA?$AAL?$AAL?$AA?$AA@ 0000000180025fe0     LIBCMT:wsetloca.obj
 0002:00006ff0       ??_C@_1BG@PPOMIBNJ@?$AAL?$AAC?$AA_?$AAC?$AAO?$AAL?$AAL?$AAA?$AAT?$AAE?$AA?$AA@ 0000000180025ff0     LIBCMT:wsetloca.obj
 0002:00007008       ??_C@_1BC@FFJGAPJM@?$AAL?$AAC?$AA_?$AAC?$AAT?$AAY?$AAP?$AAE?$AA?$AA@ 0000000180026008     LIBCMT:wsetloca.obj
 0002:00007020       ??_C@_1BI@PCKFNJFB@?$AAL?$AAC?$AA_?$AAM?$AAO?$AAN?$AAE?$AAT?$AAA?$AAR?$AAY?$AA?$AA@ 0000000180026020     LIBCMT:wsetloca.obj
 0002:00007038       ??_C@_1BG@ENIEDKID@?$AAL?$AAC?$AA_?$AAN?$AAU?$AAM?$AAE?$AAR?$AAI?$AAC?$AA?$AA@ 0000000180026038     LIBCMT:wsetloca.obj
 0002:00007050       ??_C@_1BA@HAAOMIIG@?$AAL?$AAC?$AA_?$AAT?$AAI?$AAM?$AAE?$AA?$AA@ 0000000180026050     LIBCMT:wsetloca.obj
 0002:000070e0       ??_C@_15NBPDDFIP@?$AA?$DN?$AA?$DL?$AA?$AA@ 00000001800260e0     LIBCMT:wsetloca.obj
 0002:000070e8       ??_C@_13PJJBFPED@?$AA?$DL?$AA?$AA@ 00000001800260e8     LIBCMT:wsetloca.obj
 0002:000070ec       ??_C@_13NMPKAAJP@?$AA?$DN?$AA?$AA@ 00000001800260ec     LIBCMT:wsetloca.obj
 0002:000070f0       ??_C@_13FHBKNHDA@?$AAC?$AA?$AA@ 00000001800260f0     LIBCMT:wsetloca.obj
 0002:000070f8       ??_C@_17MBJJLFDM@?$AA_?$AA?4?$AA?0?$AA?$AA@ 00000001800260f8     LIBCMT:wsetloca.obj
 0002:00007100       ??_C@_13ENNFDPBH@?$AA_?$AA?$AA@ 0000000180026100     LIBCMT:wsetloca.obj
 0002:00007104       ??_C@_13JOFGPIOO@?$AA?4?$AA?$AA@ 0000000180026104     LIBCMT:wsetloca.obj
 0002:00007110       _XcptActTab                0000000180026110     LIBCMT:winxfltr.obj
 0002:000071d0       _XcptActTabCount           00000001800261d0     LIBCMT:winxfltr.obj
 0002:000071d4       _XcptActTabSize            00000001800261d4     LIBCMT:winxfltr.obj
 0002:000071d8       _First_FPE_Indx            00000001800261d8     LIBCMT:winxfltr.obj
 0002:000071dc       _Num_FPE                   00000001800261dc     LIBCMT:winxfltr.obj
 0002:000071e0       _pDestructExceptionObject  00000001800261e0     LIBCMT:frame.obj
 0002:000071f0       ??_7bad_exception@std@@6B@ 00000001800261f0     LIBCMT:frame.obj
 0002:00007200       ??_C@_0O@DPKOEFFH@bad?5exception?$AA@ 0000000180026200     LIBCMT:frame.obj
 0002:00007210       ??_C@_05KLBDPFGC@e?$CL000?$AA@ 0000000180026210     LIBCMT:cvt.obj
 0002:00007218       ??_C@_03KHJOGHMM@exp?$AA@  0000000180026218     LIBCMT:fpexcept.obj
 0002:0000721c       ??_C@_03JGHBODFD@pow?$AA@  000000018002621c     LIBCMT:fpexcept.obj
 0002:00007220       ??_C@_03MGHMBJCF@log?$AA@  0000000180026220     LIBCMT:fpexcept.obj
 0002:00007224       ??_C@_05HGHHAHAP@log10?$AA@ 0000000180026224     LIBCMT:fpexcept.obj
 0002:0000722c       ??_C@_04COOMCNPB@sinh?$AA@ 000000018002622c     LIBCMT:fpexcept.obj
 0002:00007234       ??_C@_04HPJJNFIM@cosh?$AA@ 0000000180026234     LIBCMT:fpexcept.obj
 0002:0000723c       ??_C@_04FJHINJAO@tanh?$AA@ 000000018002623c     LIBCMT:fpexcept.obj
 0002:00007244       ??_C@_04FIHNOPOL@asin?$AA@ 0000000180026244     LIBCMT:fpexcept.obj
 0002:0000724c       ??_C@_04PDIFKINK@acos?$AA@ 000000018002624c     LIBCMT:fpexcept.obj
 0002:00007254       ??_C@_04MLLJIGOK@atan?$AA@ 0000000180026254     LIBCMT:fpexcept.obj
 0002:0000725c       ??_C@_05KNGEOGJB@atan2?$AA@ 000000018002625c     LIBCMT:fpexcept.obj
 0002:00007264       ??_C@_03BLEJJJBH@sin?$AA@  0000000180026264     LIBCMT:fpexcept.obj
 0002:00007268       ??_C@_03LALBNOCG@cos?$AA@  0000000180026268     LIBCMT:fpexcept.obj
 0002:0000726c       ??_C@_03IIINPABG@tan?$AA@  000000018002626c     LIBCMT:fpexcept.obj
 0002:00007270       ??_C@_04GFPJNGEK@ceil?$AA@ 0000000180026270     LIBCMT:fpexcept.obj
 0002:00007278       ??_C@_05PBJFFIGL@floor?$AA@ 0000000180026278     LIBCMT:fpexcept.obj
 0002:00007280       ??_C@_04ODHECPBC@fabs?$AA@ 0000000180026280     LIBCMT:fpexcept.obj
 0002:00007288       ??_C@_04EHEDPDJG@modf?$AA@ 0000000180026288     LIBCMT:fpexcept.obj
 0002:00007290       ??_C@_05CEJMAHNP@ldexp?$AA@ 0000000180026290     LIBCMT:fpexcept.obj
 0002:00007298       ??_C@_05KBKMEMPO@_cabs?$AA@ 0000000180026298     LIBCMT:fpexcept.obj
 0002:000072a0       ??_C@_04KEPJIHGP@fmod?$AA@ 00000001800262a0     LIBCMT:fpexcept.obj
 0002:000072a8       ??_C@_05GKKHEGJL@frexp?$AA@ 00000001800262a8     LIBCMT:fpexcept.obj
 0002:000072b0       ??_C@_03MJLDFKDL@_y0?$AA@  00000001800262b0     LIBCMT:fpexcept.obj
 0002:000072b4       ??_C@_03NAKIGLHK@_y1?$AA@  00000001800262b4     LIBCMT:fpexcept.obj
 0002:000072b8       ??_C@_03ONILCKOB@_yn?$AA@  00000001800262b8     LIBCMT:fpexcept.obj
 0002:000072bc       ??_C@_05JGDBENOH@_logb?$AA@ 00000001800262bc     LIBCMT:fpexcept.obj
 0002:000072c8       ??_C@_0L@KDOEJCKC@_nextafter?$AA@ 00000001800262c8     LIBCMT:fpexcept.obj
 0002:000072d4       ??_C@_06OJHGLDPL@?$CInull?$CJ?$AA@ 00000001800262d4     LIBCMT:output.obj
 0002:000072e0       ??_C@_1O@CEDCILHN@?$AA?$CI?$AAn?$AAu?$AAl?$AAl?$AA?$CJ?$AA?$AA@ 00000001800262e0     LIBCMT:output.obj
 0002:000072f0       __lookuptable              00000001800262f0     LIBCMT:output.obj
 0002:00007350       __dnames                   0000000180026350     LIBCMT:timeset.obj
 0002:00007368       __mnames                   0000000180026368     LIBCMT:timeset.obj
 0002:000073a0       __rg_language              00000001800263a0     LIBCMT:getqloc.obj
 0002:000077b0       ??_C@_1BC@LLOKLNP@?$AAa?$AAm?$AAe?$AAr?$AAi?$AAc?$AAa?$AAn?$AA?$AA@ 00000001800267b0     LIBCMT:getqloc.obj
 0002:000077c8       ??_C@_1CC@HEIGCDGG@?$AAa?$AAm?$AAe?$AAr?$AAi?$AAc?$AAa?$AAn?$AA?5?$AAe?$AAn?$AAg?$AAl?$AAi?$AAs?$AAh?$AA?$AA@ 00000001800267c8     LIBCMT:getqloc.obj
 0002:000077f0       ??_C@_1CC@IHCNOMIN@?$AAa?$AAm?$AAe?$AAr?$AAi?$AAc?$AAa?$AAn?$AA?9?$AAe?$AAn?$AAg?$AAl?$AAi?$AAs?$AAh?$AA?$AA@ 00000001800267f0     LIBCMT:getqloc.obj
 0002:00007818       ??_C@_1BG@GKAGPCGG@?$AAa?$AAu?$AAs?$AAt?$AAr?$AAa?$AAl?$AAi?$AAa?$AAn?$AA?$AA@ 0000000180026818     LIBCMT:getqloc.obj
 0002:00007830       ??_C@_1BA@GMENCENF@?$AAb?$AAe?$AAl?$AAg?$AAi?$AAa?$AAn?$AA?$AA@ 0000000180026830     LIBCMT:getqloc.obj
 0002:00007840       ??_C@_1BC@PJMIIAAN@?$AAc?$AAa?$AAn?$AAa?$AAd?$AAi?$AAa?$AAn?$AA?$AA@ 0000000180026840     LIBCMT:getqloc.obj
 0002:00007858       ??_C@_17NOIMNFBF@?$AAc?$AAh?$AAh?$AA?$AA@ 0000000180026858     LIBCMT:getqloc.obj
 0002:00007860       ??_C@_17GGDALCHA@?$AAc?$AAh?$AAi?$AA?$AA@ 0000000180026860     LIBCMT:getqloc.obj
 0002:00007868       ??_C@_1BA@NPNJKIBL@?$AAc?$AAh?$AAi?$AAn?$AAe?$AAs?$AAe?$AA?$AA@ 0000000180026868     LIBCMT:getqloc.obj
 0002:00007878       ??_C@_1CC@DINBAMMJ@?$AAc?$AAh?$AAi?$AAn?$AAe?$AAs?$AAe?$AA?9?$AAh?$AAo?$AAn?$AAg?$AAk?$AAo?$AAn?$AAg?$AA?$AA@ 0000000180026878     LIBCMT:getqloc.obj
 0002:000078a0       ??_C@_1CG@IOBJPACO@?$AAc?$AAh?$AAi?$AAn?$AAe?$AAs?$AAe?$AA?9?$AAs?$AAi?$AAm?$AAp?$AAl?$AAi?$AAf?$AAi?$AAe?$AAd?$AA?$AA@ 00000001800268a0     LIBCMT:getqloc.obj
 0002:000078c8       ??_C@_1CE@GAJNDCKG@?$AAc?$AAh?$AAi?$AAn?$AAe?$AAs?$AAe?$AA?9?$AAs?$AAi?$AAn?$AAg?$AAa?$AAp?$AAo?$AAr?$AAe?$AA?$AA@ 00000001800268c8     LIBCMT:getqloc.obj
 0002:000078f0       ??_C@_1CI@PAJPIOOD@?$AAc?$AAh?$AAi?$AAn?$AAe?$AAs?$AAe?$AA?9?$AAt?$AAr?$AAa?$AAd?$AAi?$AAt?$AAi?$AAo?$AAn?$AAa?$AAl?$AA?$AA@ 00000001800268f0     LIBCMT:getqloc.obj
 0002:00007918       ??_C@_1BM@NILJBMMD@?$AAd?$AAu?$AAt?$AAc?$AAh?$AA?9?$AAb?$AAe?$AAl?$AAg?$AAi?$AAa?$AAn?$AA?$AA@ 0000000180026918     LIBCMT:getqloc.obj
 0002:00007938       ??_C@_1CC@OOJPJNEJ@?$AAe?$AAn?$AAg?$AAl?$AAi?$AAs?$AAh?$AA?9?$AAa?$AAm?$AAe?$AAr?$AAi?$AAc?$AAa?$AAn?$AA?$AA@ 0000000180026938     LIBCMT:getqloc.obj
 0002:00007960       ??_C@_1BI@IOLFEEM@?$AAe?$AAn?$AAg?$AAl?$AAi?$AAs?$AAh?$AA?9?$AAa?$AAu?$AAs?$AA?$AA@ 0000000180026960     LIBCMT:getqloc.obj
 0002:00007978       ??_C@_1BO@HFFNLENJ@?$AAe?$AAn?$AAg?$AAl?$AAi?$AAs?$AAh?$AA?9?$AAb?$AAe?$AAl?$AAi?$AAz?$AAe?$AA?$AA@ 0000000180026978     LIBCMT:getqloc.obj
 0002:00007998       ??_C@_1BI@HAPKJMPO@?$AAe?$AAn?$AAg?$AAl?$AAi?$AAs?$AAh?$AA?9?$AAc?$AAa?$AAn?$AA?$AA@ 0000000180026998     LIBCMT:getqloc.obj
 0002:000079b0       ??_C@_1CE@HLNDMIOJ@?$AAe?$AAn?$AAg?$AAl?$AAi?$AAs?$AAh?$AA?9?$AAc?$AAa?$AAr?$AAi?$AAb?$AAb?$AAe?$AAa?$AAn?$AA?$AA@ 00000001800269b0     LIBCMT:getqloc.obj
 0002:000079d8       ??_C@_1BI@LDHJHHAC@?$AAe?$AAn?$AAg?$AAl?$AAi?$AAs?$AAh?$AA?9?$AAi?$AAr?$AAe?$AA?$AA@ 00000001800269d8     LIBCMT:getqloc.obj
 0002:000079f0       ??_C@_1CA@NJMMCFOC@?$AAe?$AAn?$AAg?$AAl?$AAi?$AAs?$AAh?$AA?9?$AAj?$AAa?$AAm?$AAa?$AAi?$AAc?$AAa?$AA?$AA@ 00000001800269f0     LIBCMT:getqloc.obj
 0002:00007a10       ??_C@_1BG@BHJEBBGG@?$AAe?$AAn?$AAg?$AAl?$AAi?$AAs?$AAh?$AA?9?$AAn?$AAz?$AA?$AA@ 0000000180026a10     LIBCMT:getqloc.obj
 0002:00007a28       ??_C@_1CK@FGOEJJCO@?$AAe?$AAn?$AAg?$AAl?$AAi?$AAs?$AAh?$AA?9?$AAs?$AAo?$AAu?$AAt?$AAh?$AA?5?$AAa?$AAf?$AAr?$AAi?$AAc?$AAa?$AA?$AA@ 0000000180026a28     LIBCMT:getqloc.obj
 0002:00007a58       ??_C@_1DE@PDBJPCJ@?$AAe?$AAn?$AAg?$AAl?$AAi?$AAs?$AAh?$AA?9?$AAt?$AAr?$AAi?$AAn?$AAi?$AAd?$AAa?$AAd?$AA?5?$AAy?$AA?5?$AAt?$AAo?$AAb?$AAa?$AAg?$AAo?$AA?$AA@ 0000000180026a58     LIBCMT:getqloc.obj
 0002:00007a90       ??_C@_1BG@JGCANDME@?$AAe?$AAn?$AAg?$AAl?$AAi?$AAs?$AAh?$AA?9?$AAu?$AAk?$AA?$AA@ 0000000180026a90     LIBCMT:getqloc.obj
 0002:00007aa8       ??_C@_1BG@DINKMLE@?$AAe?$AAn?$AAg?$AAl?$AAi?$AAs?$AAh?$AA?9?$AAu?$AAs?$AA?$AA@ 0000000180026aa8     LIBCMT:getqloc.obj
 0002:00007ac0       ??_C@_1BI@NMFDBHJE@?$AAe?$AAn?$AAg?$AAl?$AAi?$AAs?$AAh?$AA?9?$AAu?$AAs?$AAa?$AA?$AA@ 0000000180026ac0     LIBCMT:getqloc.obj
 0002:00007ad8       ??_C@_1BO@OIHKJKII@?$AAf?$AAr?$AAe?$AAn?$AAc?$AAh?$AA?9?$AAb?$AAe?$AAl?$AAg?$AAi?$AAa?$AAn?$AA?$AA@ 0000000180026ad8     LIBCMT:getqloc.obj
 0002:00007af8       ??_C@_1CA@NKAELJKI@?$AAf?$AAr?$AAe?$AAn?$AAc?$AAh?$AA?9?$AAc?$AAa?$AAn?$AAa?$AAd?$AAi?$AAa?$AAn?$AA?$AA@ 0000000180026af8     LIBCMT:getqloc.obj
 0002:00007b18       ??_C@_1CE@MGKCNLGN@?$AAf?$AAr?$AAe?$AAn?$AAc?$AAh?$AA?9?$AAl?$AAu?$AAx?$AAe?$AAm?$AAb?$AAo?$AAu?$AAr?$AAg?$AA?$AA@ 0000000180026b18     LIBCMT:getqloc.obj
 0002:00007b40       ??_C@_1BK@CEGEAILM@?$AAf?$AAr?$AAe?$AAn?$AAc?$AAh?$AA?9?$AAs?$AAw?$AAi?$AAs?$AAs?$AA?$AA@ 0000000180026b40     LIBCMT:getqloc.obj
 0002:00007b60       ??_C@_1CA@PAFKEOCC@?$AAg?$AAe?$AAr?$AAm?$AAa?$AAn?$AA?9?$AAa?$AAu?$AAs?$AAt?$AAr?$AAi?$AAa?$AAn?$AA?$AA@ 0000000180026b60     LIBCMT:getqloc.obj
 0002:00007b80       ??_C@_1CI@HCFHGOFD@?$AAg?$AAe?$AAr?$AAm?$AAa?$AAn?$AA?9?$AAl?$AAi?$AAc?$AAh?$AAt?$AAe?$AAn?$AAs?$AAt?$AAe?$AAi?$AAn?$AA?$AA@ 0000000180026b80     LIBCMT:getqloc.obj
 0002:00007ba8       ??_C@_1CE@FEDDNPDG@?$AAg?$AAe?$AAr?$AAm?$AAa?$AAn?$AA?9?$AAl?$AAu?$AAx?$AAe?$AAm?$AAb?$AAo?$AAu?$AAr?$AAg?$AA?$AA@ 0000000180026ba8     LIBCMT:getqloc.obj
 0002:00007bd0       ??_C@_1BK@LIMINNMN@?$AAg?$AAe?$AAr?$AAm?$AAa?$AAn?$AA?9?$AAs?$AAw?$AAi?$AAs?$AAs?$AA?$AA@ 0000000180026bd0     LIBCMT:getqloc.obj
 0002:00007bf0       ??_C@_1BM@LGMDBEPD@?$AAi?$AAr?$AAi?$AAs?$AAh?$AA?9?$AAe?$AAn?$AAg?$AAl?$AAi?$AAs?$AAh?$AA?$AA@ 0000000180026bf0     LIBCMT:getqloc.obj
 0002:00007c10       ??_C@_1BM@NNCFBAEE@?$AAi?$AAt?$AAa?$AAl?$AAi?$AAa?$AAn?$AA?9?$AAs?$AAw?$AAi?$AAs?$AAs?$AA?$AA@ 0000000180026c10     LIBCMT:getqloc.obj
 0002:00007c30       ??_C@_1BE@FEDJNPIB@?$AAn?$AAo?$AAr?$AAw?$AAe?$AAg?$AAi?$AAa?$AAn?$AA?$AA@ 0000000180026c30     LIBCMT:getqloc.obj
 0002:00007c48       ??_C@_1CC@CILKDEIE@?$AAn?$AAo?$AAr?$AAw?$AAe?$AAg?$AAi?$AAa?$AAn?$AA?9?$AAb?$AAo?$AAk?$AAm?$AAa?$AAl?$AA?$AA@ 0000000180026c48     LIBCMT:getqloc.obj
 0002:00007c70       ??_C@_1CE@DHMMHEPL@?$AAn?$AAo?$AAr?$AAw?$AAe?$AAg?$AAi?$AAa?$AAn?$AA?9?$AAn?$AAy?$AAn?$AAo?$AAr?$AAs?$AAk?$AA?$AA@ 0000000180026c70     LIBCMT:getqloc.obj
 0002:00007c98       ??_C@_1CK@OPNMHECD@?$AAp?$AAo?$AAr?$AAt?$AAu?$AAg?$AAu?$AAe?$AAs?$AAe?$AA?9?$AAb?$AAr?$AAa?$AAz?$AAi?$AAl?$AAi?$AAa?$AAn?$AA?$AA@ 0000000180026c98     LIBCMT:getqloc.obj
 0002:00007cc8       ??_C@_1CE@KEEHCDB@?$AAs?$AAp?$AAa?$AAn?$AAi?$AAs?$AAh?$AA?9?$AAa?$AAr?$AAg?$AAe?$AAn?$AAt?$AAi?$AAn?$AAa?$AA?$AA@ 0000000180026cc8     LIBCMT:getqloc.obj
 0002:00007cf0       ??_C@_1CA@GIAOLHJD@?$AAs?$AAp?$AAa?$AAn?$AAi?$AAs?$AAh?$AA?9?$AAb?$AAo?$AAl?$AAi?$AAv?$AAi?$AAa?$AA?$AA@ 0000000180026cf0     LIBCMT:getqloc.obj
 0002:00007d10       ??_C@_1BM@OJNDFNPD@?$AAs?$AAp?$AAa?$AAn?$AAi?$AAs?$AAh?$AA?9?$AAc?$AAh?$AAi?$AAl?$AAe?$AA?$AA@ 0000000180026d10     LIBCMT:getqloc.obj
 0002:00007d30       ??_C@_1CC@OCOLPALL@?$AAs?$AAp?$AAa?$AAn?$AAi?$AAs?$AAh?$AA?9?$AAc?$AAo?$AAl?$AAo?$AAm?$AAb?$AAi?$AAa?$AA?$AA@ 0000000180026d30     LIBCMT:getqloc.obj
 0002:00007d58       ??_C@_1CG@BPOFMKBB@?$AAs?$AAp?$AAa?$AAn?$AAi?$AAs?$AAh?$AA?9?$AAc?$AAo?$AAs?$AAt?$AAa?$AA?5?$AAr?$AAi?$AAc?$AAa?$AA?$AA@ 0000000180026d58     LIBCMT:getqloc.obj
 0002:00007d80       ??_C@_1DG@IGOBAPBB@?$AAs?$AAp?$AAa?$AAn?$AAi?$AAs?$AAh?$AA?9?$AAd?$AAo?$AAm?$AAi?$AAn?$AAi?$AAc?$AAa?$AAn?$AA?5?$AAr?$AAe?$AAp?$AAu?$AAb?$AAl?$AAi?$AAc?$AA?$AA@ 0000000180026d80     LIBCMT:getqloc.obj
 0002:00007db8       ??_C@_1CA@JHAPGEGI@?$AAs?$AAp?$AAa?$AAn?$AAi?$AAs?$AAh?$AA?9?$AAe?$AAc?$AAu?$AAa?$AAd?$AAo?$AAr?$AA?$AA@ 0000000180026db8     LIBCMT:getqloc.obj
 0002:00007dd8       ??_C@_1CI@LAPALJPP@?$AAs?$AAp?$AAa?$AAn?$AAi?$AAs?$AAh?$AA?9?$AAe?$AAl?$AA?5?$AAs?$AAa?$AAl?$AAv?$AAa?$AAd?$AAo?$AAr?$AA?$AA@ 0000000180026dd8     LIBCMT:getqloc.obj
 0002:00007e00       ??_C@_1CE@PDGBOFOM@?$AAs?$AAp?$AAa?$AAn?$AAi?$AAs?$AAh?$AA?9?$AAg?$AAu?$AAa?$AAt?$AAe?$AAm?$AAa?$AAl?$AAa?$AA?$AA@ 0000000180026e00     LIBCMT:getqloc.obj
 0002:00007e28       ??_C@_1CC@NBEBAODI@?$AAs?$AAp?$AAa?$AAn?$AAi?$AAs?$AAh?$AA?9?$AAh?$AAo?$AAn?$AAd?$AAu?$AAr?$AAa?$AAs?$AA?$AA@ 0000000180026e28     LIBCMT:getqloc.obj
 0002:00007e50       ??_C@_1CA@LLKGHBMF@?$AAs?$AAp?$AAa?$AAn?$AAi?$AAs?$AAh?$AA?9?$AAm?$AAe?$AAx?$AAi?$AAc?$AAa?$AAn?$AA?$AA@ 0000000180026e50     LIBCMT:getqloc.obj
 0002:00007e70       ??_C@_1BO@LKNDOIGD@?$AAs?$AAp?$AAa?$AAn?$AAi?$AAs?$AAh?$AA?9?$AAm?$AAo?$AAd?$AAe?$AAr?$AAn?$AA?$AA@ 0000000180026e70     LIBCMT:getqloc.obj
 0002:00007e90       ??_C@_1CE@NMDMOEEB@?$AAs?$AAp?$AAa?$AAn?$AAi?$AAs?$AAh?$AA?9?$AAn?$AAi?$AAc?$AAa?$AAr?$AAa?$AAg?$AAu?$AAa?$AA?$AA@ 0000000180026e90     LIBCMT:getqloc.obj
 0002:00007eb8       ??_C@_1BO@LLCBEJGB@?$AAs?$AAp?$AAa?$AAn?$AAi?$AAs?$AAh?$AA?9?$AAp?$AAa?$AAn?$AAa?$AAm?$AAa?$AA?$AA@ 0000000180026eb8     LIBCMT:getqloc.obj
 0002:00007ed8       ??_C@_1CC@FKPGGIHO@?$AAs?$AAp?$AAa?$AAn?$AAi?$AAs?$AAh?$AA?9?$AAp?$AAa?$AAr?$AAa?$AAg?$AAu?$AAa?$AAy?$AA?$AA@ 0000000180026ed8     LIBCMT:getqloc.obj
 0002:00007f00       ??_C@_1BK@CDEIHOOP@?$AAs?$AAp?$AAa?$AAn?$AAi?$AAs?$AAh?$AA?9?$AAp?$AAe?$AAr?$AAu?$AA?$AA@ 0000000180026f00     LIBCMT:getqloc.obj
 0002:00007f20       ??_C@_1CI@GAHAKKGP@?$AAs?$AAp?$AAa?$AAn?$AAi?$AAs?$AAh?$AA?9?$AAp?$AAu?$AAe?$AAr?$AAt?$AAo?$AA?5?$AAr?$AAi?$AAc?$AAo?$AA?$AA@ 0000000180026f20     LIBCMT:getqloc.obj
 0002:00007f48       ??_C@_1CA@NKJBCAGP@?$AAs?$AAp?$AAa?$AAn?$AAi?$AAs?$AAh?$AA?9?$AAu?$AAr?$AAu?$AAg?$AAu?$AAa?$AAy?$AA?$AA@ 0000000180026f48     LIBCMT:getqloc.obj
 0002:00007f68       ??_C@_1CE@ODILCONM@?$AAs?$AAp?$AAa?$AAn?$AAi?$AAs?$AAh?$AA?9?$AAv?$AAe?$AAn?$AAe?$AAz?$AAu?$AAe?$AAl?$AAa?$AA?$AA@ 0000000180026f68     LIBCMT:getqloc.obj
 0002:00007f90       ??_C@_1CA@OBNMCGFO@?$AAs?$AAw?$AAe?$AAd?$AAi?$AAs?$AAh?$AA?9?$AAf?$AAi?$AAn?$AAl?$AAa?$AAn?$AAd?$AA?$AA@ 0000000180026f90     LIBCMT:getqloc.obj
 0002:00007fb0       ??_C@_1M@PIPDDPPI@?$AAs?$AAw?$AAi?$AAs?$AAs?$AA?$AA@ 0000000180026fb0     LIBCMT:getqloc.obj
 0002:00007fbc       ??_C@_15GMFIMNFM@?$AAu?$AAs?$AA?$AA@ 0000000180026fbc     LIBCMT:getqloc.obj
 0002:00007fc8       ??_C@_17HAEBFAGL@?$AAu?$AAs?$AAa?$AA?$AA@ 0000000180026fc8     LIBCMT:getqloc.obj
 0002:00007fd0       __rg_country               0000000180026fd0     LIBCMT:getqloc.obj
 0002:00008140       ??_C@_1BA@DPFJEPHB@?$AAa?$AAm?$AAe?$AAr?$AAi?$AAc?$AAa?$AA?$AA@ 0000000180027140     LIBCMT:getqloc.obj
 0002:00008150       ??_C@_1BA@ELOGGFK@?$AAb?$AAr?$AAi?$AAt?$AAa?$AAi?$AAn?$AA?$AA@ 0000000180027150     LIBCMT:getqloc.obj
 0002:00008160       ??_C@_1M@GHBGIGDA@?$AAc?$AAh?$AAi?$AAn?$AAa?$AA?$AA@ 0000000180027160     LIBCMT:getqloc.obj
 0002:00008170       ??_C@_1M@NCHEJOPO@?$AAc?$AAz?$AAe?$AAc?$AAh?$AA?$AA@ 0000000180027170     LIBCMT:getqloc.obj
 0002:00008180       ??_C@_1BA@BKPAPBLA@?$AAe?$AAn?$AAg?$AAl?$AAa?$AAn?$AAd?$AA?$AA@ 0000000180027180     LIBCMT:getqloc.obj
 0002:00008190       ??_C@_1BM@HKBCKIPC@?$AAg?$AAr?$AAe?$AAa?$AAt?$AA?5?$AAb?$AAr?$AAi?$AAt?$AAa?$AAi?$AAn?$AA?$AA@ 0000000180027190     LIBCMT:getqloc.obj
 0002:000081b0       ??_C@_1BA@PPCHPGJB@?$AAh?$AAo?$AAl?$AAl?$AAa?$AAn?$AAd?$AA?$AA@ 00000001800271b0     LIBCMT:getqloc.obj
 0002:000081c0       ??_C@_1BE@JBMPEGDG@?$AAh?$AAo?$AAn?$AAg?$AA?9?$AAk?$AAo?$AAn?$AAg?$AA?$AA@ 00000001800271c0     LIBCMT:getqloc.obj
 0002:000081d8       ??_C@_1BI@KOELBBPJ@?$AAn?$AAe?$AAw?$AA?9?$AAz?$AAe?$AAa?$AAl?$AAa?$AAn?$AAd?$AA?$AA@ 00000001800271d8     LIBCMT:getqloc.obj
 0002:000081f0       ??_C@_15HIEBHAIO@?$AAn?$AAz?$AA?$AA@ 00000001800271f0     LIBCMT:getqloc.obj
 0002:000081f8       ??_C@_1BC@CHBCPFPI@?$AAp?$AAr?$AA?5?$AAc?$AAh?$AAi?$AAn?$AAa?$AA?$AA@ 00000001800271f8     LIBCMT:getqloc.obj
 0002:00008210       ??_C@_1BC@JAOIIFKD@?$AAp?$AAr?$AA?9?$AAc?$AAh?$AAi?$AAn?$AAa?$AA?$AA@ 0000000180027210     LIBCMT:getqloc.obj
 0002:00008228       ??_C@_1BI@BEHPPHKC@?$AAp?$AAu?$AAe?$AAr?$AAt?$AAo?$AA?9?$AAr?$AAi?$AAc?$AAo?$AA?$AA@ 0000000180027228     LIBCMT:getqloc.obj
 0002:00008240       ??_C@_1O@PAEOFKDI@?$AAs?$AAl?$AAo?$AAv?$AAa?$AAk?$AA?$AA@ 0000000180027240     LIBCMT:getqloc.obj
 0002:00008250       ??_C@_1BK@FIHMCKAM@?$AAs?$AAo?$AAu?$AAt?$AAh?$AA?5?$AAa?$AAf?$AAr?$AAi?$AAc?$AAa?$AA?$AA@ 0000000180027250     LIBCMT:getqloc.obj
 0002:00008270       ??_C@_1BI@NAEOODKB@?$AAs?$AAo?$AAu?$AAt?$AAh?$AA?5?$AAk?$AAo?$AAr?$AAe?$AAa?$AA?$AA@ 0000000180027270     LIBCMT:getqloc.obj
 0002:00008288       ??_C@_1BK@FBDGGIFF@?$AAs?$AAo?$AAu?$AAt?$AAh?$AA?9?$AAa?$AAf?$AAr?$AAi?$AAc?$AAa?$AA?$AA@ 0000000180027288     LIBCMT:getqloc.obj
 0002:000082a8       ??_C@_1BI@GHLEJDPK@?$AAs?$AAo?$AAu?$AAt?$AAh?$AA?9?$AAk?$AAo?$AAr?$AAe?$AAa?$AA?$AA@ 00000001800272a8     LIBCMT:getqloc.obj
 0002:000082c0       ??_C@_1CE@PLHLOMJF@?$AAt?$AAr?$AAi?$AAn?$AAi?$AAd?$AAa?$AAd?$AA?5?$AA?$CG?$AA?5?$AAt?$AAo?$AAb?$AAa?$AAg?$AAo?$AA?$AA@ 00000001800272c0     LIBCMT:getqloc.obj
 0002:000082e8       ??_C@_1BO@MODIMHHI@?$AAu?$AAn?$AAi?$AAt?$AAe?$AAd?$AA?9?$AAk?$AAi?$AAn?$AAg?$AAd?$AAo?$AAm?$AA?$AA@ 00000001800272e8     LIBCMT:getqloc.obj
 0002:00008308       ??_C@_1BM@FFHJONBJ@?$AAu?$AAn?$AAi?$AAt?$AAe?$AAd?$AA?9?$AAs?$AAt?$AAa?$AAt?$AAe?$AAs?$AA?$AA@ 0000000180027308     LIBCMT:getqloc.obj
 0002:00008324       __rg_language_count        0000000180027324     LIBCMT:getqloc.obj
 0002:00008328       __rg_country_count         0000000180027328     LIBCMT:getqloc.obj
 0002:00008330       ??_C@_17DNCLJFIF@?$AAA?$AAC?$AAP?$AA?$AA@ 0000000180027330     LIBCMT:getqloc.obj
 0002:00008338       ??_C@_17CIKBIHLH@?$AAO?$AAC?$AAP?$AA?$AA@ 0000000180027338     LIBCMT:getqloc.obj
 0002:00008340       __rglangidNotDefault       0000000180027340     LIBCMT:getqloc_downlevel.obj
 0002:00008678       ??_C@_08EHJDFFNH@__based?$CI?$AA@ 0000000180027678     LIBCMT:undname.obj
 0002:00008688       ??_C@_07KOLFKCDI@__cdecl?$AA@ 0000000180027688     LIBCMT:undname.obj
 0002:00008690       ??_C@_08GHMPAG@__pascal?$AA@ 0000000180027690     LIBCMT:undname.obj
 0002:000086a0       ??_C@_09IFJBGAPI@__stdcall?$AA@ 00000001800276a0     LIBCMT:undname.obj
 0002:000086b0       ??_C@_0L@NPHFGOKO@__thiscall?$AA@ 00000001800276b0     LIBCMT:undname.obj
 0002:000086c0       ??_C@_0L@JMKHOMEK@__fastcall?$AA@ 00000001800276c0     LIBCMT:undname.obj
 0002:000086d0       ??_C@_0N@BCKKPABJ@__vectorcall?$AA@ 00000001800276d0     LIBCMT:undname.obj
 0002:000086e0       ??_C@_09HIJEGCPM@__clrcall?$AA@ 00000001800276e0     LIBCMT:undname.obj
 0002:000086ec       ??_C@_06GHPCKEAG@__eabi?$AA@ 00000001800276ec     LIBCMT:undname.obj
 0002:000086f8       ??_C@_07JOMMBBKO@__ptr64?$AA@ 00000001800276f8     LIBCMT:undname.obj
 0002:00008700       ??_C@_0L@PILCLIHE@__restrict?$AA@ 0000000180027700     LIBCMT:undname.obj
 0002:00008710       ??_C@_0M@GFIIJFMG@__unaligned?$AA@ 0000000180027710     LIBCMT:undname.obj
 0002:00008720       ??_C@_09DHDLOLLB@restrict?$CI?$AA@ 0000000180027720     LIBCMT:undname.obj
 0002:0000872c       ??_C@_04NIHEBCM@?5new?$AA@ 000000018002772c     LIBCMT:undname.obj
 0002:00008738       ??_C@_07FPCDHGMM@?5delete?$AA@ 0000000180027738     LIBCMT:undname.obj
 0002:00008740       ??_C@_01NEMOKFLO@?$DN?$AA@ 0000000180027740     LIBCMT:undname.obj
 0002:00008744       ??_C@_02GPIOPFAK@?$DO?$DO?$AA@ 0000000180027744     LIBCMT:undname.obj
 0002:00008748       ??_C@_02FODMEDOG@?$DM?$DM?$AA@ 0000000180027748     LIBCMT:undname.obj
 0002:0000874c       ??_C@_01DCLJPIOD@?$CB?$AA@ 000000018002774c     LIBCMT:undname.obj
 0002:00008750       ??_C@_02EGOFBIJA@?$DN?$DN?$AA@ 0000000180027750     LIBCMT:undname.obj
 0002:00008754       ??_C@_02FDNJECIE@?$CB?$DN?$AA@ 0000000180027754     LIBCMT:undname.obj
 0002:00008758       ??_C@_02GPECMEKF@?$FL?$FN?$AA@ 0000000180027758     LIBCMT:undname.obj
 0002:00008760       ??_C@_08LHJFAFGD@operator?$AA@ 0000000180027760     LIBCMT:undname.obj
 0002:0000876c       ??_C@_02HBOOOICD@?9?$DO?$AA@ 000000018002776c     LIBCMT:undname.obj
 0002:00008770       ??_C@_02ECNGHCIF@?$CL?$CL?$AA@ 0000000180027770     LIBCMT:undname.obj
 0002:00008774       ??_C@_02BAABKJLB@?9?9?$AA@ 0000000180027774     LIBCMT:undname.obj
 0002:00008778       ??_C@_01MIFGBAGJ@?$CL?$AA@ 0000000180027778     LIBCMT:undname.obj
 0002:0000877c       ??_C@_01HNPIGOCE@?$CG?$AA@ 000000018002777c     LIBCMT:undname.obj
 0002:00008780       ??_C@_03MNHNFDLC@?9?$DO?$CK?$AA@ 0000000180027780     LIBCMT:undname.obj
 0002:00008784       ??_C@_01KMDKNFGN@?1?$AA@   0000000180027784     LIBCMT:undname.obj
 0002:00008788       ??_C@_01FGNFDNOH@?$CF?$AA@ 0000000180027788     LIBCMT:undname.obj
 0002:0000878c       ??_C@_01MNNFJEPP@?$DM?$AA@ 000000018002778c     LIBCMT:undname.obj
 0002:00008790       ??_C@_02EHCHHCKH@?$DM?$DN?$AA@ 0000000180027790     LIBCMT:undname.obj
 0002:00008794       ??_C@_01PPODPGHN@?$DO?$AA@ 0000000180027794     LIBCMT:undname.obj
 0002:00008798       ??_C@_02EEKDKGMJ@?$DO?$DN?$AA@ 0000000180027798     LIBCMT:undname.obj
 0002:0000879c       ??_C@_01IHBHIGKO@?0?$AA@   000000018002779c     LIBCMT:undname.obj
 0002:000087a0       ??_C@_02HCKGKOFO@?$CI?$CJ?$AA@ 00000001800277a0     LIBCMT:undname.obj
 0002:000087a4       ??_C@_01PJKLJHI@?$HO?$AA@  00000001800277a4     LIBCMT:undname.obj
 0002:000087a8       ??_C@_01JKBOJNNK@?$FO?$AA@ 00000001800277a8     LIBCMT:undname.obj
 0002:000087ac       ??_C@_01DNKMNLPK@?$HM?$AA@ 00000001800277ac     LIBCMT:undname.obj
 0002:000087b0       ??_C@_02PPKAJPJL@?$CG?$CG?$AA@ 00000001800277b0     LIBCMT:undname.obj
 0002:000087b4       ??_C@_02NONPIBCD@?$HM?$HM?$AA@ 00000001800277b4     LIBCMT:undname.obj
 0002:000087b8       ??_C@_02FPIMKNGF@?$CK?$DN?$AA@ 00000001800277b8     LIBCMT:undname.obj
 0002:000087bc       ??_C@_02FOEOMHFC@?$CL?$DN?$AA@ 00000001800277bc     LIBCMT:undname.obj
 0002:000087c0       ??_C@_02FKMDLLOA@?9?$DN?$AA@ 00000001800277c0     LIBCMT:undname.obj
 0002:000087c4       ??_C@_02FJEHGPIO@?1?$DN?$AA@ 00000001800277c4     LIBCMT:undname.obj
 0002:000087c8       ??_C@_02FENAOKFI@?$CF?$DN?$AA@ 00000001800277c8     LIBCMT:undname.obj
 0002:000087cc       ??_C@_03IKFCCPFF@?$DO?$DO?$DN?$AA@ 00000001800277cc     LIBCMT:undname.obj
 0002:000087d0       ??_C@_03CDNPDDLA@?$DM?$DM?$DN?$AA@ 00000001800277d0     LIBCMT:undname.obj
 0002:000087d4       ??_C@_02FGJGFEAB@?$CG?$DN?$AA@ 00000001800277d4     LIBCMT:undname.obj
 0002:000087d8       ??_C@_02DHLNPPGH@?$HM?$DN?$AA@ 00000001800277d8     LIBCMT:undname.obj
 0002:000087dc       ??_C@_02MHEGNOJ@?$FO?$DN?$AA@ 00000001800277dc     LIBCMT:undname.obj
 0002:000087e0       ??_C@_09IFPLHPGF@?$GAvftable?8?$AA@ 00000001800277e0     LIBCMT:undname.obj
 0002:000087f0       ??_C@_09BLBHBJP@?$GAvbtable?8?$AA@ 00000001800277f0     LIBCMT:undname.obj
 0002:00008800       ??_C@_07FEEIOKP@?$GAvcall?8?$AA@ 0000000180027800     LIBCMT:undname.obj
 0002:00008808       ??_C@_08LLFFHHDJ@?$GAtypeof?8?$AA@ 0000000180027808     LIBCMT:undname.obj
 0002:00008818       ??_C@_0BF@KDPPACIK@?$GAlocal?5static?5guard?8?$AA@ 0000000180027818     LIBCMT:undname.obj
 0002:00008830       ??_C@_08OBABFOLI@?$GAstring?8?$AA@ 0000000180027830     LIBCMT:undname.obj
 0002:00008840       ??_C@_0BD@JDLKDPAB@?$GAvbase?5destructor?8?$AA@ 0000000180027840     LIBCMT:undname.obj
 0002:00008858       ??_C@_0BN@DEGPLNFK@?$GAvector?5deleting?5destructor?8?$AA@ 0000000180027858     LIBCMT:undname.obj
 0002:00008878       ??_C@_0BO@OBMKPJIG@?$GAdefault?5constructor?5closure?8?$AA@ 0000000180027878     LIBCMT:undname.obj
 0002:00008898       ??_C@_0BN@IMDCHIKM@?$GAscalar?5deleting?5destructor?8?$AA@ 0000000180027898     LIBCMT:undname.obj
 0002:000088b8       ??_C@_0BO@PFGOCPJJ@?$GAvector?5constructor?5iterator?8?$AA@ 00000001800278b8     LIBCMT:undname.obj
 0002:000088d8       ??_C@_0BN@LFPFMEDL@?$GAvector?5destructor?5iterator?8?$AA@ 00000001800278d8     LIBCMT:undname.obj
 0002:000088f8       ??_C@_0CE@IKBNEHA@?$GAvector?5vbase?5constructor?5iterat@ 00000001800278f8     LIBCMT:undname.obj
 0002:00008920       ??_C@_0BL@NILFHHPC@?$GAvirtual?5displacement?5map?8?$AA@ 0000000180027920     LIBCMT:undname.obj
 0002:00008940       ??_C@_0CB@JONCMFFK@?$GAeh?5vector?5constructor?5iterator?8@ 0000000180027940     LIBCMT:undname.obj
 0002:00008968       ??_C@_0CA@GCEOPDGL@?$GAeh?5vector?5destructor?5iterator?8?$AA@ 0000000180027968     LIBCMT:undname.obj
 0002:00008988       ??_C@_0CH@OOJPLCPH@?$GAeh?5vector?5vbase?5constructor?5ite@ 0000000180027988     LIBCMT:undname.obj
 0002:000089b0       ??_C@_0BL@LLKPOHJI@?$GAcopy?5constructor?5closure?8?$AA@ 00000001800279b0     LIBCMT:undname.obj
 0002:000089d0       ??_C@_0BA@KBCDOMBN@?$GAudt?5returning?8?$AA@ 00000001800279d0     LIBCMT:undname.obj
 0002:000089e0       ??_C@_03KLGMFNMG@?$GAEH?$AA@ 00000001800279e0     LIBCMT:undname.obj
 0002:000089e4       ??_C@_05KHLCHHI@?$GARTTI?$AA@ 00000001800279e4     LIBCMT:undname.obj
 0002:000089f0       ??_C@_0BA@KKLDJDLB@?$GAlocal?5vftable?8?$AA@ 00000001800279f0     LIBCMT:undname.obj
 0002:00008a00       ??_C@_0CE@IIHCMGGL@?$GAlocal?5vftable?5constructor?5closu@ 0000000180027a00     LIBCMT:undname.obj
 0002:00008a24       ??_C@_06FHBGPFGH@?5new?$FL?$FN?$AA@ 0000000180027a24     LIBCMT:undname.obj
 0002:00008a30       ??_C@_09LBNFPBCA@?5delete?$FL?$FN?$AA@ 0000000180027a30     LIBCMT:undname.obj
 0002:00008a40       ??_C@_0P@HJKNJFNN@?$GAomni?5callsig?8?$AA@ 0000000180027a40     LIBCMT:undname.obj
 0002:00008a50       ??_C@_0BL@CNOONJFP@?$GAplacement?5delete?5closure?8?$AA@ 0000000180027a50     LIBCMT:undname.obj
 0002:00008a70       ??_C@_0BN@CKNJLHMB@?$GAplacement?5delete?$FL?$FN?5closure?8?$AA@ 0000000180027a70     LIBCMT:undname.obj
 0002:00008a90       ??_C@_0CG@CFDHKGGD@?$GAmanaged?5vector?5constructor?5iter@ 0000000180027a90     LIBCMT:undname.obj
 0002:00008ab8       ??_C@_0CF@IMGKMJNO@?$GAmanaged?5vector?5destructor?5itera@ 0000000180027ab8     LIBCMT:undname.obj
 0002:00008ae0       ??_C@_0CG@HLDDJMAG@?$GAeh?5vector?5copy?5constructor?5iter@ 0000000180027ae0     LIBCMT:undname.obj
 0002:00008b08       ??_C@_0CM@FCBBDIGB@?$GAeh?5vector?5vbase?5copy?5constructo@ 0000000180027b08     LIBCMT:undname.obj
 0002:00008b38       ??_C@_0BL@CLIPGLGB@?$GAdynamic?5initializer?5for?5?8?$AA@ 0000000180027b38     LIBCMT:undname.obj
 0002:00008b58       ??_C@_0CB@PDBIFEP@?$GAdynamic?5atexit?5destructor?5for?5?8@ 0000000180027b58     LIBCMT:undname.obj
 0002:00008b80       ??_C@_0CD@CGAJBKEJ@?$GAvector?5copy?5constructor?5iterato@ 0000000180027b80     LIBCMT:undname.obj
 0002:00008ba8       ??_C@_0CJ@GJELGAMM@?$GAvector?5vbase?5copy?5constructor?5i@ 0000000180027ba8     LIBCMT:undname.obj
 0002:00008bd8       ??_C@_0CL@FGIJHLCE@?$GAmanaged?5vector?5copy?5constructor@ 0000000180027bd8     LIBCMT:undname.obj
 0002:00008c08       ??_C@_0BM@PMGGMLDN@?$GAlocal?5static?5thread?5guard?8?$AA@ 0000000180027c08     LIBCMT:undname.obj
 0002:00008c28       ??_C@_0BC@DAFEJGAK@?5Type?5Descriptor?8?$AA@ 0000000180027c28     LIBCMT:undname.obj
 0002:00008c40       ??_C@_0BM@LDKODKLH@?5Base?5Class?5Descriptor?5at?5?$CI?$AA@ 0000000180027c40     LIBCMT:undname.obj
 0002:00008c60       ??_C@_0BD@LGICGFMM@?5Base?5Class?5Array?8?$AA@ 0000000180027c60     LIBCMT:undname.obj
 0002:00008c78       ??_C@_0BN@MECKDCOJ@?5Class?5Hierarchy?5Descriptor?8?$AA@ 0000000180027c78     LIBCMT:undname.obj
 0002:00008c98       ??_C@_0BK@CFCOFLF@?5Complete?5Object?5Locator?8?$AA@ 0000000180027c98     LIBCMT:undname.obj
 0002:00008cc0       __lookuptable_s            0000000180027cc0     LIBCMT:outputs.obj
 0002:00008d1c       ??_C@_06PGGFOGJG@1?$CDSNAN?$AA@ 0000000180027d1c     LIBCMT:x10fout.obj
 0002:00008d24       ??_C@_05PHHOCPM@1?$CDIND?$AA@ 0000000180027d24     LIBCMT:x10fout.obj
 0002:00008d2c       ??_C@_05DNEBIAHO@1?$CDINF?$AA@ 0000000180027d2c     LIBCMT:x10fout.obj
 0002:00008d34       ??_C@_06IMKFLFPG@1?$CDQNAN?$AA@ 0000000180027d34     LIBCMT:x10fout.obj
 0002:00008d40       ??_C@_1BA@BALFACEM@?$AAC?$AAO?$AAN?$AAO?$AAU?$AAT?$AA$?$AA?$AA@ 0000000180027d40     LIBCMT:initcon.obj
 0002:00008d50       ??_C@_0BC@BDKFLDHL@unknown?5exception?$AA@ 0000000180027d50     fibers.obj
 0002:00008d64       ??_C@_02LMMGGCAJ@?3?5?$AA@ 0000000180027d64     fibers.obj
 0002:00008d68       ??_C@_0BF@PHHKMMFD@ios_base?3?3badbit?5set?$AA@ 0000000180027d68     fibers.obj
 0002:00008d80       ??_C@_0BG@FMKFHCIL@ios_base?3?3failbit?5set?$AA@ 0000000180027d80     fibers.obj
 0002:00008d98       ??_C@_0BF@OOHOMBOF@ios_base?3?3eofbit?5set?$AA@ 0000000180027d98     fibers.obj
 0002:00008db0       ??_C@_1CC@MMNEGLKO@?$AA?4?$AA?4?$AA?2?$AAs?$AAr?$AAc?$AA?2?$AAf?$AAi?$AAb?$AAe?$AAr?$AAs?$AA?4?$AAc?$AAc?$AA?$AA@ 0000000180027db0     fibers.obj
 0002:00008dd8       ??_C@_1CE@IAEMMFJ@?$AA?$CB?$AAh?$AAa?$AAn?$AAd?$AAl?$AAe?$AA?4?$AAI?$AAs?$AAE?$AAm?$AAp?$AAt?$AAy?$AA?$CI?$AA?$CJ?$AA?$AA@ 0000000180027dd8     fibers.obj
 0002:00008e00       ??_C@_1EE@GEOOLEMO@?$AAh?$AAa?$AAn?$AAd?$AAl?$AAe?$AA?9?$AA?$DO?$AAI?$AAn?$AAt?$AAe?$AAr?$AAn?$AAa?$AAl?$AAF?$AAi?$AAe?$AAl?$AAd?$AAC?$AAo?$AAu?$AAn?$AAt?$AA?$CI?$AA?$CJ?$AA?5?$AA?$DN?$AA?$DN?$AA?5@ 0000000180027e00     fibers.obj
 0002:00008e48       ??_C@_1BO@GFHFOFNI@?$AA?$CB?$AAt?$AAh?$AAi?$AAs?$AA?9?$AA?$DO?$AAs?$AAt?$AAa?$AAr?$AAt?$AAe?$AAd?$AA?$AA@ 0000000180027e48     fibers.obj
 0002:00008e68       ??_C@_1DE@OIMEMADH@?$AAt?$AAh?$AAa?$AAt?$AA?4?$AAh?$AAa?$AAn?$AAd?$AAl?$AAe?$AA?4?$AAI?$AAs?$AAN?$AAe?$AAa?$AAr?$AAD?$AAe?$AAa?$AAt?$AAh?$AA?$CI?$AA?$CJ?$AA?$AA@ 0000000180027e68     fibers.obj
 0002:00008ea0       ??_C@_1CC@FEBCFGMI@?$AAc?$AAu?$AAr?$AAr?$AAe?$AAn?$AAt?$AA?5?$AA?$CB?$AA?$DN?$AA?5?$AA?$CG?$AAt?$AAh?$AAa?$AAt?$AA?$AA@ 0000000180027ea0     fibers.obj
 0002:00008ec8       ??_C@_1BM@LJJNNAIG@?$AAt?$AAh?$AAa?$AAt?$AA?4?$AAy?$AAi?$AAe?$AAl?$AAd?$AAi?$AAn?$AAg?$AA?$AA@ 0000000180027ec8     fibers.obj
 0002:00008ee4       ??_C@_01EEMJAFIK@?6?$AA@   0000000180027ee4     fibers.obj
 0002:00008ef0       ??_C@_0NH@KGJNCDMA@An?5exception?5was?5thrown?5from?5a?5F@ 0000000180027ef0     fibers.obj
 0002:00008fc8       ??_C@_0BJ@BJIGAPBD@Fiber?5expects?51?5argument?$AA@ 0000000180027fc8     fibers.obj
 0002:00008fe8       ??_C@_0BJ@NJECMIBF@Fiber?5expects?5a?5function?$AA@ 0000000180027fe8     fibers.obj
 0002:00009008       ??_C@_0BO@KMFFENKA@This?5Fiber?5is?5already?5running?$AA@ 0000000180028008     fibers.obj
 0002:00009028       ??_C@_0CA@DIOKFBEO@run?$CI?$CJ?5excepts?51?5or?5no?5arguments?$AA@ 0000000180028028     fibers.obj
 0002:00009048       ??_C@_0O@NALGGDJF@Out?5of?5memory?$AA@ 0000000180028048     fibers.obj
 0002:00009058       ??_C@_0BL@MMDOKPEI@This?5Fiber?5is?5not?5yielding?$AA@ 0000000180028058     fibers.obj
 0002:00009078       ??_C@_0CG@BJECJNID@throwInto?$CI?$CJ?5expects?51?5or?5no?5argu@ 0000000180028078     fibers.obj
 0002:000090a0       ??_C@_0BN@FLBKLMPD@reset?$CI?$CJ?5expects?5no?5arguments?$AA@ 00000001800280a0     fibers.obj
 0002:000090c0       ??_C@_1BA@FNFJLFEE@?$AA?$CB?$AAz?$AAo?$AAm?$AAb?$AAi?$AAe?$AA?$AA@ 00000001800280c0     fibers.obj
 0002:000090d0       ??_C@_1BA@JDAFJLAK@?$AAs?$AAt?$AAa?$AAr?$AAt?$AAe?$AAd?$AA?$AA@ 00000001800280d0     fibers.obj
 0002:000090e0       ??_C@_1BC@OLDEEBIJ@?$AAy?$AAi?$AAe?$AAl?$AAd?$AAi?$AAn?$AAg?$AA?$AA@ 00000001800280e0     fibers.obj
 0002:000090f8       ??_C@_0BH@NPBMHAJ@This?5Fiber?5is?5a?5zombie?$AA@ 00000001800280f8     fibers.obj
 0002:00009110       ??_C@_1BC@KKLBBBMD@?$AA?$CB?$AAs?$AAt?$AAa?$AAr?$AAt?$AAe?$AAd?$AA?$AA@ 0000000180028110     fibers.obj
 0002:00009128       ??_C@_07HGLOKOAE@void?50?$DL?$AA@ 0000000180028128     fibers.obj
 0002:00009130       ??_C@_0CF@MDAFPPPH@yield?$CI?$CJ?5called?5with?5no?5fiber?5run@ 0000000180028130     fibers.obj
 0002:00009158       ??_C@_0CC@GFGLFOBC@yield?$CI?$CJ?5expects?51?5or?5no?5argument@ 0000000180028158     fibers.obj
 0002:0000917c       ??_C@_05MBCEIPCG@Fiber?$AA@ 000000018002817c     fibers.obj
 0002:00009184       ??_C@_05CFMALAOA@reset?$AA@ 0000000180028184     fibers.obj
 0002:0000918c       ??_C@_03LGMJKEGG@run?$AA@  000000018002818c     fibers.obj
 0002:00009190       ??_C@_09LOEHALKD@throwInto?$AA@ 0000000180028190     fibers.obj
 0002:000091a0       ??_C@_07ELEPLNCO@started?$AA@ 00000001800281a0     fibers.obj
 0002:000091a8       ??_C@_05LKJGIMLP@yield?$AA@ 00000001800281a8     fibers.obj
 0002:000091b0       ??_C@_07LKPDDKMO@current?$AA@ 00000001800281b0     fibers.obj
 0002:000091b8       ??_C@_08JKCHBGEI@poolSize?$AA@ 00000001800281b8     fibers.obj
 0002:000091c8       ??_C@_0O@IGBLKEPC@fibersCreated?$AA@ 00000001800281c8     fibers.obj
 0002:000091d8       ??_C@_0BB@BPMFIOON@?4?4?2src?2fibers?4cc?$AA@ 00000001800281d8     fibers.obj
 0002:000091ec       ??_C@_06BJGDLCNL@fibers?$AA@ 00000001800281ec     fibers.obj
 0002:000091f8       ??_C@_0BA@JFNIOLAK@string?5too?5long?$AA@ 00000001800281f8     fibers.obj
 0002:00009208       ??_C@_0BI@CFPLBAOH@invalid?5string?5position?$AA@ 0000000180028208     fibers.obj
 0002:00009220       ??_C@_0BD@OLBABOEK@vector?$DMT?$DO?5too?5long?$AA@ 0000000180028220     fibers.obj
 0002:00009238       ??_7Fiber@@6B@             0000000180028238     fibers.obj
 0002:00009240       ??_7exception@stdext@@6B@  0000000180028240     fibers.obj
 0002:00009258       ??_C@_1CI@JPDMHELK@?$AA?4?$AA?4?$AA?2?$AAs?$AAr?$AAc?$AA?2?$AAc?$AAo?$AAr?$AAo?$AAu?$AAt?$AAi?$AAn?$AAe?$AA?4?$AAc?$AAc?$AA?$AA@ 0000000180028258     coroutine.obj
 0002:00009280       ??_C@_1CA@COKLIKGB@?$AAi?$AAs?$AAo?$AAl?$AAa?$AAt?$AAe?$AA?5?$AA?$CB?$AA?$DN?$AA?5?$AAN?$AAU?$AAL?$AAL?$AA?$AA@ 0000000180028280     coroutine.obj
 0002:000092a0       ??_C@_1CM@CDDHPOOM@?$AAi?$AAs?$AAo?$AAl?$AAa?$AAt?$AAe?$AA_?$AAk?$AAe?$AAy?$AA?5?$AA?$CB?$AA?$DN?$AA?5?$AA0?$AAx?$AA7?$AA7?$AA7?$AA7?$AA?$AA@ 00000001800282a0     coroutine.obj
 0002:000092d0       ??_C@_1DE@LKPFHCEF@?$AAt?$AAh?$AAr?$AAe?$AAa?$AAd?$AA_?$AAd?$AAa?$AAt?$AAa?$AA_?$AAk?$AAe?$AAy?$AA?5?$AA?$CB?$AA?$DN?$AA?5?$AA0?$AAx?$AA7?$AA7?$AA7?$AA7?$AA?$AA@ 00000001800282d0     coroutine.obj
 0002:00009308       ??_C@_1DA@PLHOMADO@?$AAt?$AAh?$AAr?$AAe?$AAa?$AAd?$AA_?$AAi?$AAd?$AA_?$AAk?$AAe?$AAy?$AA?5?$AA?$CB?$AA?$DN?$AA?5?$AA0?$AAx?$AA7?$AA7?$AA7?$AA7?$AA?$AA@ 0000000180028308     coroutine.obj
 0002:00009338       ??_C@_1BI@JBDNNCAG@?$AA?$CB?$AAs?$AAt?$AAa?$AAc?$AAk?$AA_?$AAs?$AAi?$AAz?$AAe?$AA?$AA@ 0000000180028338     coroutine.obj
 0002:00009350       ??_C@_1BM@OKFLHJEM@?$AAe?$AAn?$AAt?$AAr?$AAy?$AA?5?$AA?$CB?$AA?$DN?$AA?5?$AAN?$AAU?$AAL?$AAL?$AA?$AA@ 0000000180028350     coroutine.obj
 0002:00009370       ??_C@_1BM@EAEGMFPE@?$AAt?$AAh?$AAi?$AAs?$AA?5?$AA?$CB?$AA?$DN?$AA?5?$AA?$CG?$AAn?$AAe?$AAx?$AAt?$AA?$AA@ 0000000180028370     coroutine.obj
 0002:00009390       ??_C@_1BG@BILCDKIE@?$AA?$CB?$AAd?$AAe?$AAl?$AAe?$AAt?$AAe?$AA_?$AAm?$AAe?$AA?$AA@ 0000000180028390     coroutine.obj
 0002:000093a8       ??_C@_1CC@CJGGANJD@?$AA?$CG?$AAc?$AAu?$AAr?$AAr?$AAe?$AAn?$AAt?$AA?5?$AA?$CB?$AA?$DN?$AA?5?$AAt?$AAh?$AAi?$AAs?$AA?$AA@ 00000001800283a8     coroutine.obj
 0002:000093d0       ??_C@_1CE@MAKMMMHG@?$AAd?$AAe?$AAl?$AAe?$AAt?$AAe?$AA_?$AAm?$AAe?$AA?5?$AA?$DN?$AA?$DN?$AA?5?$AAt?$AAh?$AAi?$AAs?$AA?$AA@ 00000001800283d0     coroutine.obj
 0002:000093f8       ??_C@_1BM@MEMGOCDD@?$AA?$CG?$AAn?$AAe?$AAx?$AAt?$AA?5?$AA?$CB?$AA?$DN?$AA?5?$AAt?$AAh?$AAi?$AAs?$AA?$AA@ 00000001800283f8     coroutine.obj
 0002:00009418       ??_C@_1CG@LMLFCJKI@?$AA?$CG?$AAc?$AAu?$AAr?$AAr?$AAe?$AAn?$AAt?$AA?$CI?$AA?$CJ?$AA?5?$AA?$DN?$AA?$DN?$AA?5?$AAt?$AAh?$AAi?$AAs?$AA?$AA@ 0000000180028418     coroutine.obj
 0002:00009440       ??_C@_1CE@FOJMOEFJ@?$AAd?$AAe?$AAl?$AAe?$AAt?$AAe?$AA_?$AAm?$AAe?$AA?5?$AA?$DN?$AA?$DN?$AA?5?$AAN?$AAU?$AAL?$AAL?$AA?$AA@ 0000000180028440     coroutine.obj
 0002:00009468       ??_C@_0BM@NMJKDPPO@invalid?5vector?$DMT?$DO?5subscript?$AA@ 0000000180028468     coroutine.obj
 0002:00009488       ??_C@_08HCOMDCCD@iojs?4exe?$AA@ 0000000180028488     win_delay_load_hook.obj
 0002:00009498       ??_C@_08JDDNMFDB@node?4exe?$AA@ 0000000180028498     win_delay_load_hook.obj
 0002:000094a8       __real@43e0000000000000    00000001800284a8     fibers.obj
 0002:000094b0       __real@43f0000000000000    00000001800284b0     fibers.obj
 0002:000094c0       _load_config_used          00000001800284c0     LIBCMT:loadcfg.obj
 0002:000095a0       ??_R1A@?0A@EA@exception@std@@8 00000001800285a0     libcpmt:xthrow.obj
 0002:000095c8       ??_R3exception@std@@8      00000001800285c8     libcpmt:xthrow.obj
 0002:000095e0       ??_R2exception@std@@8      00000001800285e0     libcpmt:xthrow.obj
 0002:000095f0       ??_R4bad_alloc@std@@6B@    00000001800285f0     libcpmt:xthrow.obj
 0002:00009618       ??_R3bad_alloc@std@@8      0000000180028618     libcpmt:xthrow.obj
 0002:00009630       ??_R2bad_alloc@std@@8      0000000180028630     libcpmt:xthrow.obj
 0002:00009648       ??_R1A@?0A@EA@bad_alloc@std@@8 0000000180028648     libcpmt:xthrow.obj
 0002:00009670       ??_R4logic_error@std@@6B@  0000000180028670     libcpmt:xthrow.obj
 0002:00009698       ??_R3logic_error@std@@8    0000000180028698     libcpmt:xthrow.obj
 0002:000096b0       ??_R2logic_error@std@@8    00000001800286b0     libcpmt:xthrow.obj
 0002:000096c8       ??_R1A@?0A@EA@logic_error@std@@8 00000001800286c8     libcpmt:xthrow.obj
 0002:000096f0       ??_R4length_error@std@@6B@ 00000001800286f0     libcpmt:xthrow.obj
 0002:00009718       ??_R3length_error@std@@8   0000000180028718     libcpmt:xthrow.obj
 0002:00009730       ??_R2length_error@std@@8   0000000180028730     libcpmt:xthrow.obj
 0002:00009750       ??_R1A@?0A@EA@length_error@std@@8 0000000180028750     libcpmt:xthrow.obj
 0002:00009778       ??_R4out_of_range@std@@6B@ 0000000180028778     libcpmt:xthrow.obj
 0002:000097a0       ??_R3out_of_range@std@@8   00000001800287a0     libcpmt:xthrow.obj
 0002:000097b8       ??_R2out_of_range@std@@8   00000001800287b8     libcpmt:xthrow.obj
 0002:000097d8       ??_R1A@?0A@EA@out_of_range@std@@8 00000001800287d8     libcpmt:xthrow.obj
 0002:00009800       ??_R4runtime_error@std@@6B@ 0000000180028800     libcpmt:xthrow.obj
 0002:00009828       ??_R3runtime_error@std@@8  0000000180028828     libcpmt:xthrow.obj
 0002:00009840       ??_R2runtime_error@std@@8  0000000180028840     libcpmt:xthrow.obj
 0002:00009858       ??_R1A@?0A@EA@runtime_error@std@@8 0000000180028858     libcpmt:xthrow.obj
 0002:00009880       ??_R4ios_base@std@@6B@     0000000180028880     libcpmt:cerr.obj
 0002:000098a8       ??_R3ios_base@std@@8       00000001800288a8     libcpmt:cerr.obj
 0002:000098c0       ??_R2ios_base@std@@8       00000001800288c0     libcpmt:cerr.obj
 0002:000098d8       ??_R1A@?0A@EA@ios_base@std@@8 00000001800288d8     libcpmt:cerr.obj
 0002:00009900       ??_R17?0A@EA@?$_Iosb@H@std@@8 0000000180028900     libcpmt:cerr.obj
 0002:00009928       ??_R3?$_Iosb@H@std@@8      0000000180028928     libcpmt:cerr.obj
 0002:00009940       ??_R2?$_Iosb@H@std@@8      0000000180028940     libcpmt:cerr.obj
 0002:00009950       ??_R1A@?0A@EA@?$_Iosb@H@std@@8 0000000180028950     libcpmt:cerr.obj
 0002:00009978       ??_R4?$basic_ios@DU?$char_traits@D@std@@@std@@6B@ 0000000180028978     libcpmt:cerr.obj
 0002:000099a0       ??_R3?$basic_ios@DU?$char_traits@D@std@@@std@@8 00000001800289a0     libcpmt:cerr.obj
 0002:000099b8       ??_R2?$basic_ios@DU?$char_traits@D@std@@@std@@8 00000001800289b8     libcpmt:cerr.obj
 0002:000099d8       ??_R1A@?0A@EA@?$basic_ios@DU?$char_traits@D@std@@@std@@8 00000001800289d8     libcpmt:cerr.obj
 0002:00009a00       ??_R4?$basic_streambuf@DU?$char_traits@D@std@@@std@@6B@ 0000000180028a00     libcpmt:cerr.obj
 0002:00009a28       ??_R3?$basic_streambuf@DU?$char_traits@D@std@@@std@@8 0000000180028a28     libcpmt:cerr.obj
 0002:00009a40       ??_R2?$basic_streambuf@DU?$char_traits@D@std@@@std@@8 0000000180028a40     libcpmt:cerr.obj
 0002:00009a50       ??_R1A@?0A@EA@?$basic_streambuf@DU?$char_traits@D@std@@@std@@8 0000000180028a50     libcpmt:cerr.obj
 0002:00009a78       ??_R1A@A@3FA@?$basic_ios@DU?$char_traits@D@std@@@std@@8 0000000180028a78     libcpmt:cerr.obj
 0002:00009aa0       ??_R1A@A@3EA@ios_base@std@@8 0000000180028aa0     libcpmt:cerr.obj
 0002:00009ac8       ??_R17A@3EA@?$_Iosb@H@std@@8 0000000180028ac8     libcpmt:cerr.obj
 0002:00009af0       ??_R4?$basic_ostream@DU?$char_traits@D@std@@@std@@6B@ 0000000180028af0     libcpmt:cerr.obj
 0002:00009b18       ??_R3?$basic_ostream@DU?$char_traits@D@std@@@std@@8 0000000180028b18     libcpmt:cerr.obj
 0002:00009b30       ??_R2?$basic_ostream@DU?$char_traits@D@std@@@std@@8 0000000180028b30     libcpmt:cerr.obj
 0002:00009b58       ??_R1A@?0A@EA@?$basic_ostream@DU?$char_traits@D@std@@@std@@8 0000000180028b58     libcpmt:cerr.obj
 0002:00009b80       ??_R4?$basic_filebuf@DU?$char_traits@D@std@@@std@@6B@ 0000000180028b80     libcpmt:cerr.obj
 0002:00009ba8       ??_R3?$basic_filebuf@DU?$char_traits@D@std@@@std@@8 0000000180028ba8     libcpmt:cerr.obj
 0002:00009bc0       ??_R2?$basic_filebuf@DU?$char_traits@D@std@@@std@@8 0000000180028bc0     libcpmt:cerr.obj
 0002:00009bd8       ??_R1A@?0A@EA@?$basic_filebuf@DU?$char_traits@D@std@@@std@@8 0000000180028bd8     libcpmt:cerr.obj
 0002:00009c00       ??_R4_Facet_base@std@@6B@  0000000180028c00     libcpmt:cerr.obj
 0002:00009c28       ??_R3_Facet_base@std@@8    0000000180028c28     libcpmt:cerr.obj
 0002:00009c40       ??_R2_Facet_base@std@@8    0000000180028c40     libcpmt:cerr.obj
 0002:00009c50       ??_R1A@?0A@EA@_Facet_base@std@@8 0000000180028c50     libcpmt:cerr.obj
 0002:00009c78       ??_R1A@?0A@EA@facet@locale@std@@8 0000000180028c78     libcpmt:cerr.obj
 0002:00009ca0       ??_R3facet@locale@std@@8   0000000180028ca0     libcpmt:cerr.obj
 0002:00009cb8       ??_R2facet@locale@std@@8   0000000180028cb8     libcpmt:cerr.obj
 0002:00009cd0       ??_R3codecvt_base@std@@8   0000000180028cd0     libcpmt:cerr.obj
 0002:00009ce8       ??_R2codecvt_base@std@@8   0000000180028ce8     libcpmt:cerr.obj
 0002:00009d08       ??_R1A@?0A@EA@codecvt_base@std@@8 0000000180028d08     libcpmt:cerr.obj
 0002:00009d30       ??_R3ctype_base@std@@8     0000000180028d30     libcpmt:cerr.obj
 0002:00009d48       ??_R2ctype_base@std@@8     0000000180028d48     libcpmt:cerr.obj
 0002:00009d68       ??_R1A@?0A@EA@ctype_base@std@@8 0000000180028d68     libcpmt:cerr.obj
 0002:00009d90       ??_R4?$ctype@D@std@@6B@    0000000180028d90     libcpmt:cerr.obj
 0002:00009db8       ??_R3?$ctype@D@std@@8      0000000180028db8     libcpmt:cerr.obj
 0002:00009dd0       ??_R2?$ctype@D@std@@8      0000000180028dd0     libcpmt:cerr.obj
 0002:00009df8       ??_R1A@?0A@EA@?$ctype@D@std@@8 0000000180028df8     libcpmt:cerr.obj
 0002:00009e20       ??_R4_System_error@std@@6B@ 0000000180028e20     libcpmt:cerr.obj
 0002:00009e48       ??_R3_System_error@std@@8  0000000180028e48     libcpmt:cerr.obj
 0002:00009e60       ??_R2_System_error@std@@8  0000000180028e60     libcpmt:cerr.obj
 0002:00009e80       ??_R1A@?0A@EA@_System_error@std@@8 0000000180028e80     libcpmt:cerr.obj
 0002:00009ea8       ??_R3system_error@std@@8   0000000180028ea8     libcpmt:cerr.obj
 0002:00009ec0       ??_R2system_error@std@@8   0000000180028ec0     libcpmt:cerr.obj
 0002:00009ee8       ??_R1A@?0A@EA@system_error@std@@8 0000000180028ee8     libcpmt:cerr.obj
 0002:00009f10       ??_R4failure@ios_base@std@@6B@ 0000000180028f10     libcpmt:cerr.obj
 0002:00009f38       ??_R3failure@ios_base@std@@8 0000000180028f38     libcpmt:cerr.obj
 0002:00009f50       ??_R2failure@ios_base@std@@8 0000000180028f50     libcpmt:cerr.obj
 0002:00009f80       ??_R1A@?0A@EA@failure@ios_base@std@@8 0000000180028f80     libcpmt:cerr.obj
 0002:00009fa8       ??_R4?$codecvt@DDH@std@@6B@ 0000000180028fa8     libcpmt:cerr.obj
 0002:00009fd0       ??_R3?$codecvt@DDH@std@@8  0000000180028fd0     libcpmt:cerr.obj
 0002:00009fe8       ??_R2?$codecvt@DDH@std@@8  0000000180028fe8     libcpmt:cerr.obj
 0002:0000a010       ??_R1A@?0A@EA@?$codecvt@DDH@std@@8 0000000180029010     libcpmt:cerr.obj
 0002:0000a038       ??_R4_Locimp@locale@std@@6B@ 0000000180029038     libcpmt:locale0.obj
 0002:0000a060       ??_R3_Locimp@locale@std@@8 0000000180029060     libcpmt:locale0.obj
 0002:0000a078       ??_R2_Locimp@locale@std@@8 0000000180029078     libcpmt:locale0.obj
 0002:0000a098       ??_R1A@?0A@EA@_Locimp@locale@std@@8 0000000180029098     libcpmt:locale0.obj
 0002:0000a0c0       ??_R4type_info@@6B@        00000001800290c0     LIBCMT:typinfo.obj
 0002:0000a0e8       ??_R3type_info@@8          00000001800290e8     LIBCMT:typinfo.obj
 0002:0000a100       ??_R2type_info@@8          0000000180029100     LIBCMT:typinfo.obj
 0002:0000a110       ??_R1A@?0A@EA@type_info@@8 0000000180029110     LIBCMT:typinfo.obj
 0002:0000a138       ??_R4exception@std@@6B@    0000000180029138     LIBCMT:stdexcpt.obj
 0002:0000a160       ??_R4bad_cast@std@@6B@     0000000180029160     LIBCMT:stdexcpt.obj
 0002:0000a188       ??_R3bad_cast@std@@8       0000000180029188     LIBCMT:stdexcpt.obj
 0002:0000a1a0       ??_R2bad_cast@std@@8       00000001800291a0     LIBCMT:stdexcpt.obj
 0002:0000a1b8       ??_R1A@?0A@EA@bad_cast@std@@8 00000001800291b8     LIBCMT:stdexcpt.obj
 0002:0000a1e0       ??_R4bad_exception@std@@6B@ 00000001800291e0     LIBCMT:frame.obj
 0002:0000a208       ??_R3bad_exception@std@@8  0000000180029208     LIBCMT:frame.obj
 0002:0000a220       ??_R2bad_exception@std@@8  0000000180029220     LIBCMT:frame.obj
 0002:0000a238       ??_R1A@?0A@EA@bad_exception@std@@8 0000000180029238     LIBCMT:frame.obj
 0002:0000a260       __rtc_iaa                  0000000180029260     LIBCMT:initsect.obj
 0002:0000a268       __rtc_izz                  0000000180029268     LIBCMT:initsect.obj
 0002:0000a270       __rtc_taa                  0000000180029270     LIBCMT:initsect.obj
 0002:0000a278       __rtc_tzz                  0000000180029278     LIBCMT:initsect.obj
 0002:0000bbf0       _TI2?AVbad_alloc@std@@     000000018002abf0     libcpmt:xthrow.obj
 0002:0000bc10       _CTA2?AVbad_alloc@std@@    000000018002ac10     libcpmt:xthrow.obj
 0002:0000bc28       _CT??_R0?AVbad_alloc@std@@@8??0bad_alloc@std@@QEAA@AEBV01@@Z24 000000018002ac28     libcpmt:xthrow.obj
 0002:0000bc50       _CT??_R0?AVexception@std@@@8??0exception@std@@QEAA@AEBV01@@Z24 000000018002ac50     libcpmt:xthrow.obj
 0002:0000bc78       _CT??_R0?AVlogic_error@std@@@8??0logic_error@std@@QEAA@AEBV01@@Z24 000000018002ac78     libcpmt:xthrow.obj
 0002:0000bca0       _TI3?AVlength_error@std@@  000000018002aca0     libcpmt:xthrow.obj
 0002:0000bcc0       _CTA3?AVlength_error@std@@ 000000018002acc0     libcpmt:xthrow.obj
 0002:0000bce0       _CT??_R0?AVlength_error@std@@@8??0length_error@std@@QEAA@AEBV01@@Z24 000000018002ace0     libcpmt:xthrow.obj
 0002:0000bd08       _TI3?AVout_of_range@std@@  000000018002ad08     libcpmt:xthrow.obj
 0002:0000bd28       _CTA3?AVout_of_range@std@@ 000000018002ad28     libcpmt:xthrow.obj
 0002:0000bd48       _CT??_R0?AVout_of_range@std@@@8??0out_of_range@std@@QEAA@AEBV01@@Z24 000000018002ad48     libcpmt:xthrow.obj
 0002:0000bd70       _CT??_R0?AVruntime_error@std@@@8??0runtime_error@std@@QEAA@AEBV01@@Z24 000000018002ad70     libcpmt:xthrow.obj
 0002:0000bd98       _TI2?AVruntime_error@std@@ 000000018002ad98     libcpmt:xthrow.obj
 0002:0000bdb8       _CTA2?AVruntime_error@std@@ 000000018002adb8     libcpmt:xthrow.obj
 0002:0000bdd0       _TI2?AVbad_cast@std@@      000000018002add0     libcpmt:cerr.obj
 0002:0000bdf0       _CTA2?AVbad_cast@std@@     000000018002adf0     libcpmt:cerr.obj
 0002:0000be08       _CT??_R0?AVbad_cast@std@@@8??0bad_cast@std@@QEAA@AEBV01@@Z24 000000018002ae08     libcpmt:cerr.obj
 0002:0000be30       _TI2?AVbad_exception@std@@ 000000018002ae30     LIBCMT:frame.obj
 0002:0000be50       _CTA2?AVbad_exception@std@@ 000000018002ae50     LIBCMT:frame.obj
 0002:0000be68       _CT??_R0?AVbad_exception@std@@@8??0bad_exception@std@@QEAA@AEBV01@@Z24 000000018002ae68     LIBCMT:frame.obj
 0002:0000be8c       __DELAY_IMPORT_DESCRIPTOR_node_exe 000000018002ae8c     node:node.exe
 0002:0000beac       __NULL_DELAY_IMPORT_DESCRIPTOR 000000018002aeac     node:node.exe
 0002:0000c088       \177node_NULL_THUNK_DATA_DLN 000000018002b088     node:node.exe
 0002:0000ced8       \177node_NULL_THUNK_DATA_DLB 000000018002bed8     node:node.exe
 0002:0000d0e0       __IMPORT_DESCRIPTOR_KERNEL32 000000018002c0e0     kernel32:KERNEL32.dll
 0002:0000d0f4       __NULL_IMPORT_DESCRIPTOR   000000018002c0f4     kernel32:KERNEL32.dll
 0003:00000004       ?_Sync@ios_base@std@@0_NA  000000018002d004     libcpmt:ios.obj
 0003:00000020       ?_PJP_CPP_Copyright@@3PADA 000000018002d020     libcpmt:iosptrs.obj
 0003:00000080       _FDenorm                   000000018002d080     libcpmt:xfvalues.obj
 0003:00000090       _FInf                      000000018002d090     libcpmt:xfvalues.obj
 0003:000000a0       _FNan                      000000018002d0a0     libcpmt:xfvalues.obj
 0003:000000b0       _FSnan                     000000018002d0b0     libcpmt:xfvalues.obj
 0003:000000c0       _FEps                      000000018002d0c0     libcpmt:xfvalues.obj
 0003:000000d0       _FRteps                    000000018002d0d0     libcpmt:xfvalues.obj
 0003:000000e0       _FXbig                     000000018002d0e0     libcpmt:xfvalues.obj
 0003:000000e8       _Denorm                    000000018002d0e8     libcpmt:xvalues.obj
 0003:000000f8       _Hugeval                   000000018002d0f8     libcpmt:xvalues.obj
 0003:00000108       _Inf                       000000018002d108     libcpmt:xvalues.obj
 0003:00000118       _Nan                       000000018002d118     libcpmt:xvalues.obj
 0003:00000128       _Snan                      000000018002d128     libcpmt:xvalues.obj
 0003:00000138       _Eps                       000000018002d138     libcpmt:xvalues.obj
 0003:00000148       _Rteps                     000000018002d148     libcpmt:xvalues.obj
 0003:00000158       _Xbig                      000000018002d158     libcpmt:xvalues.obj
 0003:00000160       _LDenorm                   000000018002d160     libcpmt:xlvalues.obj
 0003:00000170       _LInf                      000000018002d170     libcpmt:xlvalues.obj
 0003:00000180       _LNan                      000000018002d180     libcpmt:xlvalues.obj
 0003:00000190       _LSnan                     000000018002d190     libcpmt:xlvalues.obj
 0003:000001a0       _LEps                      000000018002d1a0     libcpmt:xlvalues.obj
 0003:000001b0       _LRteps                    000000018002d1b0     libcpmt:xlvalues.obj
 0003:000001c0       _LXbig                     000000018002d1c0     libcpmt:xlvalues.obj
 0003:00000240       _fltused                   000000018002d240     LIBCMT:fpinit.obj
 0003:00000244       _ldused                    000000018002d244     LIBCMT:fpinit.obj
 0003:00000250       _iob                       000000018002d250     LIBCMT:_file.obj
 0003:00000610       __security_cookie          000000018002d610     LIBCMT:gs_cookie.obj
 0003:00000618       __security_cookie_complement 000000018002d618     LIBCMT:gs_cookie.obj
 0003:00000860       _pctype                    000000018002d860     LIBCMT:ctype.obj
 0003:00000868       _pwctype                   000000018002d868     LIBCMT:ctype.obj
 0003:00000870       __abort_behavior           000000018002d870     LIBCMT:abort.obj
 0003:00000880       __lconv_c                  000000018002d880     LIBCMT:lconv.obj
 0003:00000918       __lconv_static_decimal     000000018002d918     LIBCMT:lconv.obj
 0003:0000091c       __lconv_static_W_decimal   000000018002d91c     LIBCMT:lconv.obj
 0003:00000920       __lconv                    000000018002d920     LIBCMT:lconv.obj
 0003:00000aa0       __isa_available            000000018002daa0     LIBCMT:cpu_disp.obj
 0003:00000aa4       __isa_enabled              000000018002daa4     LIBCMT:cpu_disp.obj
 0003:00000ab0       _cfltcvt_tab               000000018002dab0     LIBCMT:cmiscdat.obj
 0003:00000b00       _mbctype                   000000018002db00     LIBCMT:mbctype.obj
 0003:00000c10       _mbcasemap                 000000018002dc10     LIBCMT:mbctype.obj
 0003:00000d10       __initialmbcinfo           000000018002dd10     LIBCMT:mbctype.obj
 0003:00001030       __ptmbcinfo                000000018002e030     LIBCMT:mbctype.obj
 0003:00001038       __flsindex                 000000018002e038     LIBCMT:tidtable.obj
 0003:0000103c       __mb_cur_max               000000018002e03c     LIBCMT:nlsdata.obj
 0003:00001040       __wclocalestr              000000018002e040     LIBCMT:nlsdata.obj
 0003:00001050       __lc_time_c                000000018002e050     LIBCMT:nlsdata.obj
 0003:00001310       __ptlocinfo                000000018002e310     LIBCMT:nlsdata.obj
 0003:00001320       __initiallocinfo           000000018002e320     LIBCMT:nlsdata.obj
 0003:00001478       __globallocalestatus       000000018002e478     LIBCMT:glstatus.obj
 0003:00001490       __badioinfo                000000018002e490     LIBCMT:ioinit.obj
 0003:000014f0       _d_inf                     000000018002e4f0     LIBCMT:util.obj
 0003:000014f8       _d_ind                     000000018002e4f8     LIBCMT:util.obj
 0003:00001500       _d_max                     000000018002e500     LIBCMT:util.obj
 0003:00001508       _d_min                     000000018002e508     LIBCMT:util.obj
 0003:00001510       _d_mzero                   000000018002e510     LIBCMT:util.obj
 0003:000016f0       __nullstring               000000018002e6f0     LIBCMT:output.obj
 0003:000016f8       __wnullstring              000000018002e6f8     LIBCMT:output.obj
 0003:00001720       _timezone                  000000018002e720     LIBCMT:timeset.obj
 0003:00001724       _daylight                  000000018002e724     LIBCMT:timeset.obj
 0003:00001728       _dstbias                   000000018002e728     LIBCMT:timeset.obj
 0003:000017b0       _tzname                    000000018002e7b0     LIBCMT:timeset.obj
 0003:000017c0       _matherr_flag              000000018002e7c0     LIBCMT:matherr.obj
 0003:000017d0       _lookuptrailbytes          000000018002e7d0     LIBCMT:read.obj
 0003:000018d0       _days                      000000018002e8d0     LIBCMT:days.obj
 0003:00001908       _lpdays                    000000018002e908     LIBCMT:days.obj
 0003:00001970       _confh                     000000018002e970     LIBCMT:initcon.obj
 0003:00001980       _pow10pos                  000000018002e980     LIBCMT:constpow.obj
 0003:00001ae0       _pow10neg                  000000018002eae0     LIBCMT:constpow.obj
 0003:00001c40       _HUGE                      000000018002ec40     LIBCMT:huge.obj
 0003:00001c90       ?pool_size@Coroutine@@2_KA 000000018002ec90     coroutine.obj
 0003:00001ca8       __pfnDliNotifyHook2        000000018002eca8     win_delay_load_hook.obj
 0003:00001cb0       ??_R0?AVbad_alloc@std@@@8  000000018002ecb0     libcpmt:xthrow.obj
 0003:00001cd8       ??_R0?AVexception@std@@@8  000000018002ecd8     libcpmt:xthrow.obj
 0003:00001d00       ??_R0?AVlogic_error@std@@@8 000000018002ed00     libcpmt:xthrow.obj
 0003:00001d28       ??_R0?AVlength_error@std@@@8 000000018002ed28     libcpmt:xthrow.obj
 0003:00001d50       ??_R0?AVout_of_range@std@@@8 000000018002ed50     libcpmt:xthrow.obj
 0003:00001d78       ??_R0?AVruntime_error@std@@@8 000000018002ed78     libcpmt:xthrow.obj
 0003:00001da0       ??_R0?AVfailure@ios_base@std@@@8 000000018002eda0     libcpmt:cerr.obj
 0003:00001dd0       ??_R0?AVsystem_error@std@@@8 000000018002edd0     libcpmt:cerr.obj
 0003:00001df8       ??_R0?AV_System_error@std@@@8 000000018002edf8     libcpmt:cerr.obj
 0003:00001e20       ??_R0?AVbad_cast@std@@@8   000000018002ee20     libcpmt:cerr.obj
 0003:00001e48       ??_R0?AVios_base@std@@@8   000000018002ee48     libcpmt:cerr.obj
 0003:00001e70       ??_R0?AV?$_Iosb@H@std@@@8  000000018002ee70     libcpmt:cerr.obj
 0003:00001e98       ??_R0?AV?$basic_ios@DU?$char_traits@D@std@@@std@@@8 000000018002ee98     libcpmt:cerr.obj
 0003:00001ee0       ??_R0?AV?$basic_streambuf@DU?$char_traits@D@std@@@std@@@8 000000018002eee0     libcpmt:cerr.obj
 0003:00001f30       ??_R0?AV?$basic_ostream@DU?$char_traits@D@std@@@std@@@8 000000018002ef30     libcpmt:cerr.obj
 0003:00001f80       ??_R0?AV?$basic_filebuf@DU?$char_traits@D@std@@@std@@@8 000000018002ef80     libcpmt:cerr.obj
 0003:00001fc8       ??_R0?AV_Facet_base@std@@@8 000000018002efc8     libcpmt:cerr.obj
 0003:00001ff0       ??_R0?AVfacet@locale@std@@@8 000000018002eff0     libcpmt:cerr.obj
 0003:00002018       ??_R0?AVcodecvt_base@std@@@8 000000018002f018     libcpmt:cerr.obj
 0003:00002040       ??_R0?AUctype_base@std@@@8 000000018002f040     libcpmt:cerr.obj
 0003:00002068       ??_R0?AV?$ctype@D@std@@@8  000000018002f068     libcpmt:cerr.obj
 0003:00002090       ??_R0?AV?$codecvt@DDH@std@@@8 000000018002f090     libcpmt:cerr.obj
 0003:000020b8       ??_R0?AV_Locimp@locale@std@@@8 000000018002f0b8     libcpmt:locale0.obj
 0003:000020e8       ??_R0?AVtype_info@@@8      000000018002f0e8     LIBCMT:typinfo.obj
 0003:00002108       ??_R0?AVbad_exception@std@@@8 000000018002f108     LIBCMT:frame.obj
 0003:00002130       __imp_node_module_register 000000018002f130     node:node.exe
 0003:00002138       __imp_?StackTrace@TryCatch@v8@@QEBA?AV?$Local@VValue@v8@@@2@XZ 000000018002f138     node:node.exe
 0003:00002140       __imp_?Exception@TryCatch@v8@@QEBA?AV?$Local@VValue@v8@@@2@XZ 000000018002f140     node:node.exe
 0003:00002148       __imp_?HasCaught@TryCatch@v8@@QEBA_NXZ 000000018002f148     node:node.exe
 0003:00002150       __imp_??1TryCatch@v8@@QEAA@XZ 000000018002f150     node:node.exe
 0003:00002158       __imp_??0TryCatch@v8@@QEAA@XZ 000000018002f158     node:node.exe
 0003:00002160       __imp_?Initialize@Locker@v8@@AEAAXPEAVIsolate@2@@Z 000000018002f160     node:node.exe
 0003:00002168       __imp_??1Locker@v8@@QEAA@XZ 000000018002f168     node:node.exe
 0003:00002170       __imp_?New@Signature@v8@@SA?AV?$Local@VSignature@v8@@@2@PEAVIsolate@2@V?$Local@VFunctionTemplate@v8@@@2@@Z 000000018002f170     node:node.exe
 0003:00002178       __imp_?Exit@Context@v8@@QEAAXXZ 000000018002f178     node:node.exe
 0003:00002180       __imp_?Enter@Context@v8@@QEAAXXZ 000000018002f180     node:node.exe
 0003:00002188       __imp_?Global@Context@v8@@QEAA?AV?$Local@VObject@v8@@@2@XZ 000000018002f188     node:node.exe
 0003:00002190       __imp_?Compile@Script@v8@@SA?AV?$Local@VScript@v8@@@2@V?$Local@VString@v8@@@2@PEAVScriptOrigin@2@@Z 000000018002f190     node:node.exe
 0003:00002198       __imp_?ClearWeak@V8@v8@@CAPEAXPEAPEAVObject@internal@2@@Z 000000018002f198     node:node.exe
 0003:000021a0       __imp_?MakeWeak@V8@v8@@CAXPEAPEAVObject@internal@2@PEAXP6AXAEBV?$WeakCallbackData@VValue@v8@@X@2@@Z@Z 000000018002f1a0     node:node.exe
 0003:000021a8       __imp_?DisposeGlobal@V8@v8@@CAXPEAPEAVObject@internal@2@@Z 000000018002f1a8     node:node.exe
 0003:000021b0       __imp_?GlobalizeReference@V8@v8@@CAPEAPEAVObject@internal@2@PEAVIsolate@42@PEAPEAV342@@Z 000000018002f1b0     node:node.exe
 0003:000021b8       __imp_?StrictEquals@Value@v8@@QEBA_NV?$Local@VValue@v8@@@2@@Z 000000018002f1b8     node:node.exe
 0003:000021c0       __imp_?IsFunction@Value@v8@@QEBA_NXZ 000000018002f1c0     node:node.exe
 0003:000021c8       __imp_?SetClassName@FunctionTemplate@v8@@QEAAXV?$Local@VString@v8@@@2@@Z 000000018002f1c8     node:node.exe
 0003:000021d0       __imp_?PrototypeTemplate@FunctionTemplate@v8@@QEAA?AV?$Local@VObjectTemplate@v8@@@2@XZ 000000018002f1d0     node:node.exe
 0003:000021d8       __imp_?InstanceTemplate@FunctionTemplate@v8@@QEAA?AV?$Local@VObjectTemplate@v8@@@2@XZ 000000018002f1d8     node:node.exe
 0003:000021e0       __imp_?GetFunction@FunctionTemplate@v8@@QEAA?AV?$Local@VFunction@v8@@@2@XZ 000000018002f1e0     node:node.exe
 0003:000021e8       __imp_?New@FunctionTemplate@v8@@SA?AV?$Local@VFunctionTemplate@v8@@@2@PEAVIsolate@2@P6AXAEBV?$FunctionCallbackInfo@VValue@v8@@@2@@ZV?$Local@VValue@v8@@@2@V?$Local@VSignature@v8@@@2@H@Z 000000018002f1e8     node:node.exe
 0003:000021f0       __imp_?Error@Exception@v8@@SA?AV?$Local@VValue@v8@@@2@V?$Local@VString@v8@@@2@@Z 000000018002f1f0     node:node.exe
 0003:000021f8       __imp_?TypeError@Exception@v8@@SA?AV?$Local@VValue@v8@@@2@V?$Local@VString@v8@@@2@@Z 000000018002f1f8     node:node.exe
 0003:00002200       __imp_?RangeError@Exception@v8@@SA?AV?$Local@VValue@v8@@@2@V?$Local@VString@v8@@@2@@Z 000000018002f200     node:node.exe
 0003:00002208       __imp_??0Utf8Value@String@v8@@QEAA@V?$Local@VValue@v8@@@2@@Z 000000018002f208     node:node.exe
 0003:00002210       __imp_?NewFromOneByte@String@v8@@SA?AV?$Local@VString@v8@@@2@PEAVIsolate@2@PEBEW4NewStringType@12@H@Z 000000018002f210     node:node.exe
 0003:00002218       __imp_?CreateHandle@HandleScope@v8@@KAPEAPEAVObject@internal@2@PEAVIsolate@42@PEAV342@@Z 000000018002f218     node:node.exe
 0003:00002220       __imp_??1HandleScope@v8@@QEAA@XZ 000000018002f220     node:node.exe
 0003:00002228       __imp_??0HandleScope@v8@@QEAA@PEAVIsolate@1@@Z 000000018002f228     node:node.exe
 0003:00002230       __imp_?New@Number@v8@@SA?AV?$Local@VNumber@v8@@@2@PEAVIsolate@2@N@Z 000000018002f230     node:node.exe
 0003:00002238       __imp_?Value@Number@v8@@QEBANXZ 000000018002f238     node:node.exe
 0003:00002240       __imp_?SlowGetAlignedPointerFromInternalField@Object@v8@@AEAAPEAXH@Z 000000018002f240     node:node.exe
 0003:00002248       __imp_?SetAlignedPointerInInternalField@Object@v8@@QEAAXHPEAX@Z 000000018002f248     node:node.exe
 0003:00002250       __imp_?InternalFieldCount@Object@v8@@QEAAHXZ 000000018002f250     node:node.exe
 0003:00002258       __imp_?SetAccessor@Object@v8@@QEAA_NV?$Local@VString@v8@@@2@P6AX0AEBV?$PropertyCallbackInfo@VValue@v8@@@2@@ZP6AX0V?$Local@VValue@v8@@@2@AEBV?$PropertyCallbackInfo@X@2@@Z3W4AccessControl@2@W4PropertyAttribute@2@@Z 000000018002f258     node:node.exe
 0003:00002260       __imp_?Get@Object@v8@@QEAA?AV?$Local@VValue@v8@@@2@V32@@Z 000000018002f260     node:node.exe
 0003:00002268       __imp_?Set@Object@v8@@QEAA_NV?$Local@VValue@v8@@@2@0@Z 000000018002f268     node:node.exe
 0003:00002270       __imp_?Initialize@Unlocker@v8@@AEAAXPEAVIsolate@2@@Z 000000018002f270     node:node.exe
 0003:00002278       __imp_??1Unlocker@v8@@QEAA@XZ 000000018002f278     node:node.exe
 0003:00002280       __imp_?Set@Template@v8@@QEAAXV?$Local@VName@v8@@@2@V?$Local@VData@v8@@@2@W4PropertyAttribute@2@@Z 000000018002f280     node:node.exe
 0003:00002288       __imp_?SetInternalFieldCount@ObjectTemplate@v8@@QEAAXH@Z 000000018002f288     node:node.exe
 0003:00002290       __imp_?SetAccessor@ObjectTemplate@v8@@QEAAXV?$Local@VString@v8@@@2@P6AX0AEBV?$PropertyCallbackInfo@VValue@v8@@@2@@ZP6AX0V?$Local@VValue@v8@@@2@AEBV?$PropertyCallbackInfo@X@2@@Z3W4AccessControl@2@W4PropertyAttribute@2@V?$Local@VAccessorSignature@v8@@@2@@Z 000000018002f290     node:node.exe
 0003:00002298       __imp_?Call@Function@v8@@QEAA?AV?$Local@VValue@v8@@@2@V32@HQEAV32@@Z 000000018002f298     node:node.exe
 0003:000022a0       __imp_?NewInstance@Function@v8@@QEBA?AV?$Local@VObject@v8@@@2@HQEAV?$Local@VValue@v8@@@2@@Z 000000018002f2a0     node:node.exe
 0003:000022a8       __imp_?ReportExternalAllocationLimitReached@Isolate@v8@@AEAAXXZ 000000018002f2a8     node:node.exe
 0003:000022b0       __imp_?SetStackLimit@Isolate@v8@@QEAAX_K@Z 000000018002f2b0     node:node.exe
 0003:000022b8       __imp_?ThrowException@Isolate@v8@@QEAA?AV?$Local@VValue@v8@@@2@V32@@Z 000000018002f2b8     node:node.exe
 0003:000022c0       __imp_?GetCurrentContext@Isolate@v8@@QEAA?AV?$Local@VContext@v8@@@2@XZ 000000018002f2c0     node:node.exe
 0003:000022c8       __imp_?Exit@Isolate@v8@@QEAAXXZ 000000018002f2c8     node:node.exe
 0003:000022d0       __imp_?Enter@Isolate@v8@@QEAAXXZ 000000018002f2d0     node:node.exe
 0003:000022d8       __imp_?GetCurrent@Isolate@v8@@SAPEAV12@XZ 000000018002f2d8     node:node.exe
 0003:000022e0       __imp_?ToNumber@Value@v8@@QEBA?AV?$Local@VNumber@v8@@@2@XZ 000000018002f2e0     node:node.exe
 0003:000022e8       \177node_NULL_THUNK_DATA_DLA 000000018002f2e8     node:node.exe
 0003:00002300       __hmod__node_exe           000000018002f300     node:node.exe
 0003:00002310       ?_Raise_handler@std@@3P6AXAEBVexception@stdext@@@ZEA 000000018002f310     libcpmt:raisehan.obj
 0003:00002320       ?id@?$num_put@DV?$back_insert_iterator@V?$basic_string@DU?$char_traits@D@std@@V?$allocator@D@2@@std@@@std@@@std@@2V0locale@2@A 000000018002f320     libcpmt:xthrow.obj
 0003:00002328       ?id@?$num_put@_WV?$back_insert_iterator@V?$basic_string@_WU?$char_traits@_W@std@@V?$allocator@_W@2@@std@@@std@@@std@@2V0locale@2@A 000000018002f328     libcpmt:xthrow.obj
 0003:00002330       ?id@?$numpunct@D@std@@2V0locale@2@A 000000018002f330     libcpmt:xthrow.obj
 0003:00002338       ?id@?$numpunct@_W@std@@2V0locale@2@A 000000018002f338     libcpmt:xthrow.obj
 0003:000023e0       ?cerr@std@@3V?$basic_ostream@DU?$char_traits@D@std@@@1@A 000000018002f3e0     libcpmt:cerr.obj
 0003:00002450       ?id@?$codecvt@DDH@std@@2V0locale@2@A 000000018002f450     libcpmt:cerr.obj
 0003:00002458       ?_Stinit@?1??_Init@?$basic_filebuf@DU?$char_traits@D@std@@@std@@IEAAXPEAU_iobuf@@W4_Initfl@23@@Z@4HA 000000018002f458     libcpmt:cerr.obj
 0003:00002460       ?_Psave@?$_Facetptr@V?$ctype@D@std@@@std@@2PEBVfacet@locale@2@EB 000000018002f460     libcpmt:cerr.obj
 0003:00002468       ?_Psave@?$_Facetptr@V?$codecvt@DDH@std@@@std@@2PEBVfacet@locale@2@EB 000000018002f468     libcpmt:cerr.obj
 0003:00002520       ?_Id_cnt@id@locale@std@@0HA 000000018002f520     libcpmt:locale0.obj
 0003:00002530       ?_Clocptr@_Locimp@locale@std@@0PEAV123@EA 000000018002f530     libcpmt:locale0.obj
 0003:00002540       ?id@?$codecvt@GDH@std@@2V0locale@2@A 000000018002f540     libcpmt:locale0.obj
 0003:00002548       ?id@?$ctype@D@std@@2V0locale@2@A 000000018002f548     libcpmt:locale0.obj
 0003:00002550       ?id@?$codecvt@_WDH@std@@2V0locale@2@A 000000018002f550     libcpmt:locale0.obj
 0003:00002568       ?id@?$ctype@G@std@@2V0locale@2@A 000000018002f568     libcpmt:locale0.obj
 0003:00002570       ?id@?$ctype@_W@std@@2V0locale@2@A 000000018002f570     libcpmt:locale0.obj
 0003:00002580       ?_Index@ios_base@std@@0HA  000000018002f580     libcpmt:ios.obj
 0003:000025f0       ?_Ptr_cin@std@@3PEAV?$basic_istream@DU?$char_traits@D@std@@@1@EA 000000018002f5f0     libcpmt:iosptrs.obj
 0003:000025f8       ?_Ptr_cout@std@@3PEAV?$basic_ostream@DU?$char_traits@D@std@@@1@EA 000000018002f5f8     libcpmt:iosptrs.obj
 0003:00002600       ?_Ptr_cerr@std@@3PEAV?$basic_ostream@DU?$char_traits@D@std@@@1@EA 000000018002f600     libcpmt:iosptrs.obj
 0003:00002608       ?_Ptr_clog@std@@3PEAV?$basic_ostream@DU?$char_traits@D@std@@@1@EA 000000018002f608     libcpmt:iosptrs.obj
 0003:00002610       ?_Ptr_wcin@std@@3PEAV?$basic_istream@_WU?$char_traits@_W@std@@@1@EA 000000018002f610     libcpmt:iosptrs.obj
 0003:00002618       ?_Ptr_wcout@std@@3PEAV?$basic_ostream@_WU?$char_traits@_W@std@@@1@EA 000000018002f618     libcpmt:iosptrs.obj
 0003:00002620       ?_Ptr_wcerr@std@@3PEAV?$basic_ostream@_WU?$char_traits@_W@std@@@1@EA 000000018002f620     libcpmt:iosptrs.obj
 0003:00002628       ?_Ptr_wclog@std@@3PEAV?$basic_ostream@_WU?$char_traits@_W@std@@@1@EA 000000018002f628     libcpmt:iosptrs.obj
 0003:00002688       ?id@?$num_get@DV?$istreambuf_iterator@DU?$char_traits@D@std@@@std@@@std@@2V0locale@2@A 000000018002f688     libcpmt:locale.obj
 0003:00002690       ?id@?$num_put@DV?$ostreambuf_iterator@DU?$char_traits@D@std@@@std@@@std@@2V0locale@2@A 000000018002f690     libcpmt:locale.obj
 0003:000026a0       ?id@?$time_put@_WV?$ostreambuf_iterator@_WU?$char_traits@_W@std@@@std@@@std@@2V0locale@2@A 000000018002f6a0     libcpmt:wlocale.obj
 0003:000026a8       ?id@?$num_get@_WV?$istreambuf_iterator@_WU?$char_traits@_W@std@@@std@@@std@@2V0locale@2@A 000000018002f6a8     libcpmt:wlocale.obj
 0003:000026b0       ?id@?$num_put@_WV?$ostreambuf_iterator@_WU?$char_traits@_W@std@@@std@@@std@@2V0locale@2@A 000000018002f6b0     libcpmt:wlocale.obj
 0003:000026b8       ?id@?$collate@_W@std@@2V0locale@2@A 000000018002f6b8     libcpmt:wlocale.obj
 0003:000026c0       ?id@?$messages@_W@std@@2V0locale@2@A 000000018002f6c0     libcpmt:wlocale.obj
 0003:000026c8       ?id@?$money_get@_WV?$istreambuf_iterator@_WU?$char_traits@_W@std@@@std@@@std@@2V0locale@2@A 000000018002f6c8     libcpmt:wlocale.obj
 0003:000026d0       ?id@?$money_put@_WV?$ostreambuf_iterator@_WU?$char_traits@_W@std@@@std@@@std@@2V0locale@2@A 000000018002f6d0     libcpmt:wlocale.obj
 0003:000026d8       ?id@?$moneypunct@_W$0A@@std@@2V0locale@2@A 000000018002f6d8     libcpmt:wlocale.obj
 0003:000026e0       ?id@?$moneypunct@_W$00@std@@2V0locale@2@A 000000018002f6e0     libcpmt:wlocale.obj
 0003:000026e8       ?id@?$time_get@_WV?$istreambuf_iterator@_WU?$char_traits@_W@std@@@std@@@std@@2V0locale@2@A 000000018002f6e8     libcpmt:wlocale.obj
 0003:000026f0       ?id@?$num_get@GV?$istreambuf_iterator@GU?$char_traits@G@std@@@std@@@std@@2V0locale@2@A 000000018002f6f0     libcpmt:wlocale.obj
 0003:000026f8       ?id@?$num_put@GV?$ostreambuf_iterator@GU?$char_traits@G@std@@@std@@@std@@2V0locale@2@A 000000018002f6f8     libcpmt:wlocale.obj
 0003:00002700       ?id@?$numpunct@G@std@@2V0locale@2@A 000000018002f700     libcpmt:wlocale.obj
 0003:00002708       ?id@?$collate@G@std@@2V0locale@2@A 000000018002f708     libcpmt:wlocale.obj
 0003:00002710       ?id@?$messages@G@std@@2V0locale@2@A 000000018002f710     libcpmt:wlocale.obj
 0003:00002718       ?id@?$money_get@GV?$istreambuf_iterator@GU?$char_traits@G@std@@@std@@@std@@2V0locale@2@A 000000018002f718     libcpmt:wlocale.obj
 0003:00002720       ?id@?$money_put@GV?$ostreambuf_iterator@GU?$char_traits@G@std@@@std@@@std@@2V0locale@2@A 000000018002f720     libcpmt:wlocale.obj
 0003:00002728       ?id@?$moneypunct@G$0A@@std@@2V0locale@2@A 000000018002f728     libcpmt:wlocale.obj
 0003:00002730       ?id@?$moneypunct@G$00@std@@2V0locale@2@A 000000018002f730     libcpmt:wlocale.obj
 0003:00002738       ?id@?$time_get@GV?$istreambuf_iterator@GU?$char_traits@G@std@@@std@@@std@@2V0locale@2@A 000000018002f738     libcpmt:wlocale.obj
 0003:00002740       ?id@?$time_put@GV?$ostreambuf_iterator@GU?$char_traits@G@std@@@std@@@std@@2V0locale@2@A 000000018002f740     libcpmt:wlocale.obj
 0003:00002750       ?id@?$collate@D@std@@2V0locale@2@A 000000018002f750     libcpmt:xlocale.obj
 0003:00002758       ?id@?$messages@D@std@@2V0locale@2@A 000000018002f758     libcpmt:xlocale.obj
 0003:00002760       ?id@?$money_get@DV?$istreambuf_iterator@DU?$char_traits@D@std@@@std@@@std@@2V0locale@2@A 000000018002f760     libcpmt:xlocale.obj
 0003:00002768       ?id@?$money_put@DV?$ostreambuf_iterator@DU?$char_traits@D@std@@@std@@@std@@2V0locale@2@A 000000018002f768     libcpmt:xlocale.obj
 0003:00002770       ?id@?$moneypunct@D$0A@@std@@2V0locale@2@A 000000018002f770     libcpmt:xlocale.obj
 0003:00002778       ?id@?$moneypunct@D$00@std@@2V0locale@2@A 000000018002f778     libcpmt:xlocale.obj
 0003:00002780       ?id@?$time_get@DV?$istreambuf_iterator@DU?$char_traits@D@std@@@std@@@std@@2V0locale@2@A 000000018002f780     libcpmt:xlocale.obj
 0003:00002788       ?id@?$time_put@DV?$ostreambuf_iterator@DU?$char_traits@D@std@@@std@@@std@@2V0locale@2@A 000000018002f788     libcpmt:xlocale.obj
 0003:00002794       _FZero                     000000018002f794     libcpmt:xfvalues.obj
 0003:00002798       _Zero                      000000018002f798     libcpmt:xvalues.obj
 0003:000027a0       _LZero                     000000018002f7a0     libcpmt:xlvalues.obj
 0003:000027a8       __pInvalidArgHandler       000000018002f7a8     LIBCMT:invarg.obj
 0003:000027b0       _C_Exit_Done               000000018002f7b0     LIBCMT:crt0dat.obj
 0003:000027b4       __argc                     000000018002f7b4     LIBCMT:crt0dat.obj
 0003:000027b8       __argv                     000000018002f7b8     LIBCMT:crt0dat.obj
 0003:000027c0       __wargv                    000000018002f7c0     LIBCMT:crt0dat.obj
 0003:000027c8       _environ                   000000018002f7c8     LIBCMT:crt0dat.obj
 0003:000027d0       _wenviron                  000000018002f7d0     LIBCMT:crt0dat.obj
 0003:000027d8       _pgmptr                    000000018002f7d8     LIBCMT:crt0dat.obj
 0003:000027e0       _wpgmptr                   000000018002f7e0     LIBCMT:crt0dat.obj
 0003:000027e8       _umaskval                  000000018002f7e8     LIBCMT:crt0dat.obj
 0003:000027ec       _exitflag                  000000018002f7ec     LIBCMT:crt0dat.obj
 0003:000027f0       _C_Termination_Done        000000018002f7f0     LIBCMT:crt0dat.obj
 0003:000027f8       __winitenv                 000000018002f7f8     LIBCMT:crt0dat.obj
 0003:00002800       __initenv                  000000018002f800     LIBCMT:crt0dat.obj
 0003:00002810       _aenvptr                   000000018002f810     LIBCMT:dllcrt0.obj
 0003:00002818       _wenvptr                   000000018002f818     LIBCMT:dllcrt0.obj
 0003:00002820       __fastflag                 000000018002f820     LIBCMT:fpinit.obj
 0003:00002824       _cflush                    000000018002f824     LIBCMT:_file.obj
 0003:00002a60       _maxwait                   000000018002fa60     LIBCMT:crtheap.obj
 0003:00002a64       __lconv_static_null        000000018002fa64     LIBCMT:lconv.obj
 0003:00002a68       __lconv_static_W_null      000000018002fa68     LIBCMT:lconv.obj
 0003:00002ff4       __favor                    000000018002fff4     LIBCMT:cpu_disp.obj
 0003:00002ff8       __error_mode               000000018002fff8     LIBCMT:errmode.obj
 0003:00003050       __app_type                 0000000180030050     LIBCMT:crt0msg.obj
 0003:00003688       __pPurecall                0000000180030688     LIBCMT:inithelp.obj
 0003:00003690       ?__pInconsistency@@3P6AXXZEA 0000000180030690     LIBCMT:hooks.obj
 0003:00003698       ?_pnhHeap@@3P6AH_K@ZEA     0000000180030698     LIBCMT:handler.obj
 0003:000036a8       __mbcodepage               00000001800306a8     LIBCMT:mbctype.obj
 0003:000036ac       __ismbcodepage             00000001800306ac     LIBCMT:mbctype.obj
 0003:000036b0       __mbulinfo                 00000001800306b0     LIBCMT:mbctype.obj
 0003:000036c0       __mblocalename             00000001800306c0     LIBCMT:mbctype.obj
 0003:000036d0       _stdbuf                    00000001800306d0     LIBCMT:_sftbuf.obj
 0003:000036e0       __locale_changed           00000001800306e0     LIBCMT:wsetloca.obj
 0003:000036e8       _crtheap                   00000001800306e8     LIBCMT:heapinit.obj
 0003:000036f0       __pioinfo                  00000001800306f0     LIBCMT:ioinit.obj
 0003:000039f8       ?g_OutOfMemoryExceptionCallback@@3P6APEAXXZEA 00000001800309f8     LIBCMT:frame.obj
 0003:00003a10       _newmode                   0000000180030a10     LIBCMT:_newmode.obj
 0003:00003ae0       ?m_pGetParameter@UnDecorator@@0P6APEADJ@ZEA 0000000180030ae0     LIBCMT:undname.obj
 0003:00003ae8       ?pArgList@UnDecorator@@0PEAVReplicator@@EA 0000000180030ae8     LIBCMT:undname.obj
 0003:00003af0       ?pZNameList@UnDecorator@@0PEAVReplicator@@EA 0000000180030af0     LIBCMT:undname.obj
 0003:00003af8       ?pTemplateArgList@UnDecorator@@0PEAVReplicator@@EA 0000000180030af8     LIBCMT:undname.obj
 0003:00003b00       ?gName@UnDecorator@@0PEBDEB 0000000180030b00     LIBCMT:undname.obj
 0003:00003b08       ?name@UnDecorator@@0PEBDEB 0000000180030b08     LIBCMT:undname.obj
 0003:00003b10       ?outputString@UnDecorator@@0PEADEA 0000000180030b10     LIBCMT:undname.obj
 0003:00003b18       ?maxStringLength@UnDecorator@@0HA 0000000180030b18     LIBCMT:undname.obj
 0003:00003b1c       ?disableFlags@UnDecorator@@0KA 0000000180030b1c     LIBCMT:undname.obj
 0003:00003b20       ?fExplicitTemplateParams@UnDecorator@@0_NA 0000000180030b20     LIBCMT:undname.obj
 0003:00003b21       ?fGetTemplateArgumentList@UnDecorator@@0_NA 0000000180030b21     LIBCMT:undname.obj
 0003:00003b50       _outputformat              0000000180030b50     LIBCMT:outputformat.obj
 0003:00003b60       __pfnDliFailureHook2       0000000180030b60     DelayImp:delayhk1.obj
 0003:00003b68       ?current@Fiber@@0PEAV1@EA  0000000180030b68     fibers.obj
 0003:00003b70       ?did_init@@3_NA            0000000180030b70     fibers.obj
 0003:00003b78       ?global_locker@Fiber@@0PEAVLocker@v8@@EA 0000000180030b78     fibers.obj
 0003:00003ba0       ?tmpl@Fiber@@0V?$Persistent@VFunctionTemplate@v8@@V?$NonCopyablePersistentTraits@VFunctionTemplate@v8@@@2@@v8@@A 0000000180030ba0     fibers.obj
 0003:00003ba8       ?fiber_object@Fiber@@0V?$Persistent@VFunction@v8@@V?$NonCopyablePersistentTraits@VFunction@v8@@@2@@v8@@A 0000000180030ba8     fibers.obj
 0003:00003bb0       ?fatal_stack@Fiber@@0V?$Persistent@VValue@v8@@V?$NonCopyablePersistentTraits@VValue@v8@@@2@@v8@@A 0000000180030bb0     fibers.obj
 0003:00003bb8       ?orphaned_fibers@Fiber@@0V?$vector@PEAVFiber@@V?$allocator@PEAVFiber@@@std@@@std@@A 0000000180030bb8     fibers.obj
 0003:00003c00       ?_System_object@?$_Error_objects@H@std@@2V_System_error_category@2@A 0000000180030c00     fibers.obj
 0003:00003c08       ?_Iostream_object@?$_Error_objects@H@std@@2V_Iostream_error_category@2@A 0000000180030c08     fibers.obj
 0003:00003c10       ?_Generic_object@?$_Error_objects@H@std@@2V_Generic_error_category@2@A 0000000180030c10     fibers.obj
 0003:00003c18       _nhandle                   0000000180030c18     <common>
 0003:00003c1c       _debugger_hook_dummy       0000000180030c1c     <common>
 0003:00003c20       encodedKERNEL32Functions   0000000180030c20     <common>
 0003:00003d28       __piob                     0000000180030d28     <common>
 0003:00003d30       _nstream                   0000000180030d30     <common>
 0003:00003d40       _bufin                     0000000180030d40     <common>
 0003:00004d40       _acmdln                    0000000180031d40     <common>
 0003:00004d48       __dyn_tls_init_callback    0000000180031d48     <common>
 0003:00004d50       __onexitend                0000000180031d50     <common>
 0003:00004d58       __onexitbegin              0000000180031d58     <common>
 0003:00004d60       __mbctype_initialized      0000000180031d60     <common>
 0003:00004d64       __env_initialized          0000000180031d64     <common>

 entry point at        0001:00008610

 Static symbols

 0000:fffca000       .debug$S                   0000000180000000     node:node.exe
 0000:fffca000       .debug$S                   0000000180000000     node:node.exe
 0000:fffca000       .debug$S                   0000000180000000     node:node.exe
 0000:fffca000       .debug$S                   0000000180000000     node:node.exe
 0000:fffca000       .debug$S                   0000000180000000     node:node.exe
 0000:fffca000       .debug$S                   0000000180000000     node:node.exe
 0000:fffca000       .debug$S                   0000000180000000     kernel32:KERNEL32.dll
 0000:fffca000       .debug$S                   0000000180000000     kernel32:KERNEL32.dll
 0000:fffca000       .debug$S                   0000000180000000     kernel32:KERNEL32.dll
 0000:fffca000       .debug$S                   0000000180000000     kernel32:KERNEL32.dll
 0000:fffca000       .debug$S                   0000000180000000     kernel32:KERNEL32.dll
 0000:fffca000       .debug$S                   0000000180000000     kernel32:KERNEL32.dll
 0000:fffca000       .debug$S                   0000000180000000     kernel32:KERNEL32.dll
 0000:fffca000       .debug$S                   0000000180000000     kernel32:KERNEL32.dll
 0000:fffca000       .debug$S                   0000000180000000     kernel32:KERNEL32.dll
 0000:fffca000       .debug$S                   0000000180000000     kernel32:KERNEL32.dll
 0000:fffca000       .debug$S                   0000000180000000     kernel32:KERNEL32.dll
 0000:fffca000       .debug$S                   0000000180000000     kernel32:KERNEL32.dll
 0000:fffca000       .debug$S                   0000000180000000     kernel32:KERNEL32.dll
 0000:fffca000       .debug$S                   0000000180000000     kernel32:KERNEL32.dll
 0000:fffca000       .debug$S                   0000000180000000     kernel32:KERNEL32.dll
 0000:fffca000       .debug$S                   0000000180000000     kernel32:KERNEL32.dll
 0000:fffca000       .debug$S                   0000000180000000     kernel32:KERNEL32.dll
 0000:fffca000       .debug$S                   0000000180000000     kernel32:KERNEL32.dll
 0000:fffca000       .debug$S                   0000000180000000     kernel32:KERNEL32.dll
 0000:fffca000       .debug$S                   0000000180000000     kernel32:KERNEL32.dll
 0000:fffca000       .debug$S                   0000000180000000     kernel32:KERNEL32.dll
 0000:fffca000       .debug$S                   0000000180000000     kernel32:KERNEL32.dll
 0000:fffca000       .debug$S                   0000000180000000     kernel32:KERNEL32.dll
 0000:fffca000       .debug$S                   0000000180000000     kernel32:KERNEL32.dll
 0000:fffca000       .debug$S                   0000000180000000     kernel32:KERNEL32.dll
 0000:fffca000       .debug$S                   0000000180000000     kernel32:KERNEL32.dll
 0000:fffca000       .debug$S                   0000000180000000     kernel32:KERNEL32.dll
 0000:fffca000       .debug$S                   0000000180000000     kernel32:KERNEL32.dll
 0000:fffca000       .debug$S                   0000000180000000     kernel32:KERNEL32.dll
 0000:fffca000       .debug$S                   0000000180000000     kernel32:KERNEL32.dll
 0000:fffca000       .debug$S                   0000000180000000     kernel32:KERNEL32.dll
 0000:fffca000       .debug$S                   0000000180000000     kernel32:KERNEL32.dll
 0000:fffca000       .debug$S                   0000000180000000     kernel32:KERNEL32.dll
 0000:fffca000       .debug$S                   0000000180000000     kernel32:KERNEL32.dll
 0000:fffca000       .debug$S                   0000000180000000     kernel32:KERNEL32.dll
 0000:fffca000       .debug$S                   0000000180000000     kernel32:KERNEL32.dll
 0000:fffca000       .debug$S                   0000000180000000     kernel32:KERNEL32.dll
 0000:fffca000       .debug$S                   0000000180000000     kernel32:KERNEL32.dll
 0000:fffca000       .debug$S                   0000000180000000     kernel32:KERNEL32.dll
 0000:fffca000       .debug$S                   0000000180000000     kernel32:KERNEL32.dll
 0000:fffca000       .debug$S                   0000000180000000     kernel32:KERNEL32.dll
 0000:fffca000       .debug$S                   0000000180000000     kernel32:KERNEL32.dll
 0000:fffca000       .debug$S                   0000000180000000     kernel32:KERNEL32.dll
 0000:fffca000       .debug$S                   0000000180000000     kernel32:KERNEL32.dll
 0000:fffca000       .debug$S                   0000000180000000     kernel32:KERNEL32.dll
 0000:fffca000       .debug$S                   0000000180000000     kernel32:KERNEL32.dll
 0000:fffca000       .debug$S                   0000000180000000     kernel32:KERNEL32.dll
 0000:fffca000       .debug$S                   0000000180000000     kernel32:KERNEL32.dll
 0000:fffca000       .debug$S                   0000000180000000     kernel32:KERNEL32.dll
 0000:fffca000       .debug$S                   0000000180000000     kernel32:KERNEL32.dll
 0000:fffca000       .debug$S                   0000000180000000     kernel32:KERNEL32.dll
 0000:fffca000       .debug$S                   0000000180000000     kernel32:KERNEL32.dll
 0000:fffca000       .debug$S                   0000000180000000     kernel32:KERNEL32.dll
 0000:fffca000       .debug$S                   0000000180000000     kernel32:KERNEL32.dll
 0000:fffca000       .debug$S                   0000000180000000     kernel32:KERNEL32.dll
 0000:fffca000       .debug$S                   0000000180000000     kernel32:KERNEL32.dll
 0000:fffca000       .debug$S                   0000000180000000     kernel32:KERNEL32.dll
 0000:fffca000       .debug$S                   0000000180000000     kernel32:KERNEL32.dll
 0000:fffca000       .debug$S                   0000000180000000     kernel32:KERNEL32.dll
 0000:fffca000       .debug$S                   0000000180000000     kernel32:KERNEL32.dll
 0000:fffca000       .debug$S                   0000000180000000     kernel32:KERNEL32.dll
 0000:fffca000       .debug$S                   0000000180000000     kernel32:KERNEL32.dll
 0000:fffca000       .debug$S                   0000000180000000     kernel32:KERNEL32.dll
 0000:fffca000       .debug$S                   0000000180000000     kernel32:KERNEL32.dll
 0000:fffca000       .debug$S                   0000000180000000     kernel32:KERNEL32.dll
 0000:fffca000       .debug$S                   0000000180000000     kernel32:KERNEL32.dll
 0000:fffca000       .debug$S                   0000000180000000     kernel32:KERNEL32.dll
 0000:fffca000       .debug$S                   0000000180000000     kernel32:KERNEL32.dll
 0000:fffca000       .debug$S                   0000000180000000     kernel32:KERNEL32.dll
 0000:fffca000       .debug$S                   0000000180000000     kernel32:KERNEL32.dll
 0000:fffca000       .debug$S                   0000000180000000     kernel32:KERNEL32.dll
 0000:fffca000       .debug$S                   0000000180000000     kernel32:KERNEL32.dll
 0000:fffca000       .debug$S                   0000000180000000     kernel32:KERNEL32.dll
 0000:fffca000       .debug$S                   0000000180000000     kernel32:KERNEL32.dll
 0000:fffca000       .debug$S                   0000000180000000     kernel32:KERNEL32.dll
 0000:fffca000       .debug$S                   0000000180000000     kernel32:KERNEL32.dll
 0000:fffca000       .debug$S                   0000000180000000     kernel32:KERNEL32.dll
 0000:fffca000       .debug$S                   0000000180000000     kernel32:KERNEL32.dll
 0000:fffca000       .debug$S                   0000000180000000     kernel32:KERNEL32.dll
 0000:fffca000       .debug$S                   0000000180000000     kernel32:KERNEL32.dll
 0000:fffca000       .debug$S                   0000000180000000     kernel32:KERNEL32.dll
 0000:fffca000       .debug$S                   0000000180000000     kernel32:KERNEL32.dll
 0000:fffca000       .debug$S                   0000000180000000     kernel32:KERNEL32.dll
 0000:fffca000       .debug$S                   0000000180000000     kernel32:KERNEL32.dll
 0000:fffca000       .debug$S                   0000000180000000     kernel32:KERNEL32.dll
 0000:fffca000       .debug$S                   0000000180000000     kernel32:KERNEL32.dll
 0000:fffca000       .debug$S                   0000000180000000     kernel32:KERNEL32.dll
 0000:fffca000       .debug$S                   0000000180000000     kernel32:KERNEL32.dll
 0000:fffca000       .debug$S                   0000000180000000     kernel32:KERNEL32.dll
 0000:fffca000       .debug$S                   0000000180000000     kernel32:KERNEL32.dll
 0000:fffca000       .debug$S                   0000000180000000     kernel32:KERNEL32.dll
 0000:fffca000       .debug$S                   0000000180000000     kernel32:KERNEL32.dll
 0000:fffca000       .debug$S                   0000000180000000     kernel32:KERNEL32.dll
 0000:fffca000       .debug$S                   0000000180000000     node:node.exe
 0000:fffca000       .debug$S                   0000000180000000     node:node.exe
 0000:fffca000       .debug$S                   0000000180000000     node:node.exe
 0000:fffca000       .debug$S                   0000000180000000     node:node.exe
 0000:fffca000       .debug$S                   0000000180000000     node:node.exe
 0000:fffca000       .debug$S                   0000000180000000     node:node.exe
 0000:fffca000       .debug$S                   0000000180000000     node:node.exe
 0000:fffca000       .debug$S                   0000000180000000     node:node.exe
 0000:fffca000       .debug$S                   0000000180000000     node:node.exe
 0000:fffca000       .debug$S                   0000000180000000     node:node.exe
 0000:fffca000       .debug$S                   0000000180000000     node:node.exe
 0000:fffca000       .debug$S                   0000000180000000     node:node.exe
 0000:fffca000       .debug$S                   0000000180000000     node:node.exe
 0000:fffca000       .debug$S                   0000000180000000     node:node.exe
 0000:fffca000       .debug$S                   0000000180000000     node:node.exe
 0000:fffca000       .debug$S                   0000000180000000     node:node.exe
 0000:fffca000       .debug$S                   0000000180000000     node:node.exe
 0000:fffca000       .debug$S                   0000000180000000     node:node.exe
 0000:fffca000       .debug$S                   0000000180000000     node:node.exe
 0000:fffca000       .debug$S                   0000000180000000     node:node.exe
 0000:fffca000       .debug$S                   0000000180000000     node:node.exe
 0000:fffca000       .debug$S                   0000000180000000     node:node.exe
 0000:fffca000       .debug$S                   0000000180000000     node:node.exe
 0000:fffca000       .debug$S                   0000000180000000     node:node.exe
 0000:fffca000       .debug$S                   0000000180000000     node:node.exe
 0000:fffca000       .debug$S                   0000000180000000     node:node.exe
 0000:fffca000       .debug$S                   0000000180000000     node:node.exe
 0000:fffca000       .debug$S                   0000000180000000     node:node.exe
 0000:fffca000       .debug$S                   0000000180000000     node:node.exe
 0000:fffca000       .debug$S                   0000000180000000     node:node.exe
 0000:fffca000       .debug$S                   0000000180000000     node:node.exe
 0000:fffca000       .debug$S                   0000000180000000     node:node.exe
 0000:fffca000       .debug$S                   0000000180000000     node:node.exe
 0000:fffca000       .debug$S                   0000000180000000     node:node.exe
 0000:fffca000       .debug$S                   0000000180000000     node:node.exe
 0000:fffca000       .debug$S                   0000000180000000     node:node.exe
 0000:fffca000       .debug$S                   0000000180000000     node:node.exe
 0000:fffca000       .debug$S                   0000000180000000     node:node.exe
 0000:fffca000       .debug$S                   0000000180000000     node:node.exe
 0000:fffca000       .debug$S                   0000000180000000     node:node.exe
 0000:fffca000       .debug$S                   0000000180000000     node:node.exe
 0000:fffca000       .debug$S                   0000000180000000     node:node.exe
 0000:fffca000       .debug$S                   0000000180000000     node:node.exe
 0000:fffca000       .debug$S                   0000000180000000     node:node.exe
 0000:fffca000       .debug$S                   0000000180000000     node:node.exe
 0000:fffca000       .debug$S                   0000000180000000     node:node.exe
 0000:fffca000       .debug$S                   0000000180000000     node:node.exe
 0000:fffca000       .debug$S                   0000000180000000     node:node.exe
 0000:fffca000       .debug$S                   0000000180000000     node:node.exe
 0000:fffca000       .debug$S                   0000000180000000     node:node.exe
 0000:fffca000       .debug$S                   0000000180000000     node:node.exe
 0000:fffca000       .debug$S                   0000000180000000     node:node.exe
 0000:fffca000       .debug$S                   0000000180000000     node:node.exe
 0000:fffca000       .debug$S                   0000000180000000     node:node.exe
 0000:fffca000       .debug$S                   0000000180000000     node:node.exe
 0000:fffca000       .debug$S                   0000000180000000     node:node.exe
 0000:fffca000       .debug$S                   0000000180000000     node:node.exe
 0000:fffca000       .debug$S                   0000000180000000     node:node.exe
 0000:fffca000       .debug$S                   0000000180000000     node:node.exe
 0000:fffca000       .debug$S                   0000000180000000     node:node.exe
 0000:fffca000       .debug$S                   0000000180000000     node:node.exe
 0001:00000000       ??__Epiecewise_construct@std@@YAXXZ 0000000180001000 f   fibers.obj
 0001:00000010       ??__Eallocator_arg@std@@YAXXZ 0000000180001010 f   fibers.obj
 0001:00000020       ??__E?tmpl@Fiber@@0V?$Persistent@VFunctionTemplate@v8@@V?$NonCopyablePersistentTraits@VFunctionTemplate@v8@@@2@@v8@@A@@YAXXZ 0000000180001020 f   fibers.obj
 0001:00000040       ??__E?fiber_object@Fiber@@0V?$Persistent@VFunction@v8@@V?$NonCopyablePersistentTraits@VFunction@v8@@@2@@v8@@A@@YAXXZ 0000000180001040 f   fibers.obj
 0001:00000060       ??__E?orphaned_fibers@Fiber@@0V?$vector@PEAVFiber@@V?$allocator@PEAVFiber@@@std@@@std@@A@@YAXXZ 0000000180001060 f   fibers.obj
 0001:00000090       ??__E?fatal_stack@Fiber@@0V?$Persistent@VValue@v8@@V?$NonCopyablePersistentTraits@VValue@v8@@@2@@v8@@A@@YAXXZ 0000000180001090 f   fibers.obj
 0001:000000b0       ??__Epiecewise_construct@std@@YAXXZ 00000001800010b0 f   coroutine.obj
 0001:000000c0       ??__Eallocator_arg@std@@YAXXZ 00000001800010c0 f   coroutine.obj
 0001:000000d0       ??__Efls_data_pool@@YAXXZ  00000001800010d0 f   coroutine.obj
 0001:00000100       ??__Efiber_pool@@YAXXZ     0000000180001100 f   coroutine.obj
 0001:00000124       ??__Ecerr@std@@YAXXZ       0000000180001124 f   libcpmt:cerr.obj
 0001:00000154       ??__Eferr@std@@YAXXZ       0000000180001154 f   libcpmt:cerr.obj
 0001:000001a0       ??__Einit_cerr@std@@YAXXZ  00000001800011a0 f   libcpmt:cerr.obj
 0001:000001d8       ??__Einitlocks@@YAXXZ      00000001800011d8 f   libcpmt:cerr.obj
 0001:000001f8       ??__Einitlocks@std@@YAXXZ  00000001800011f8 f   libcpmt:xlock.obj
 0001:00000218       ??__E_Fac_tidy_reg@std@@YAXXZ 0000000180001218 f   libcpmt:locale0.obj
 0001:00000224       ??__Eclassic_locale@std@@YAXXZ 0000000180001224 f   libcpmt:locale0.obj
 0001:00000230       ??__Einit_atexit@@YAXXZ    0000000180001230 f   libcpmt:iosptrs.obj
 0001:0000023c       ??__Einitlocks@std@@YAXXZ  000000018000123c f   libcpmt:iosptrs.obj
 0001:00002480       _register_fibers           0000000180003480 f   fibers.obj
 0001:00003280       ?find_thread_id_key@@YAKPEAX@Z 0000000180004280 f   coroutine.obj
 0001:00004220       load_exe_hook              0000000180005220 f   win_delay_load_hook.obj
 0001:000068ec       tidy_global                00000001800078ec f   libcpmt:locale0.obj
 0001:00006ad0       $$000000                   0000000180007ad0     LIBCMT:amdsecgs.obj
 0001:00006cc0       $$000000                   0000000180007cc0     LIBCMT:memcpy.obj
 0001:00006db0       MoveSmall                  0000000180007db0     LIBCMT:memcpy.obj
 0001:00007b78       swprintf                   0000000180008b78 f   LIBCMT:wassert.obj
 0001:0000800c       _initterm                  000000018000900c f   LIBCMT:crt0dat.obj
 0001:000080c0       doexit                     00000001800090c0 f   LIBCMT:crt0dat.obj
 0001:00008650       __DllMainCRTStartup        0000000180009650 f   LIBCMT:dllcrt0.obj
 0001:00008770       $$000000                   0000000180009770     LIBCMT:strlen.obj
 0001:00009614       flsall                     000000018000a614 f   LIBCMT:fflush.obj
 0001:0000a020       $$000000                   000000018000b020     LIBCMT:memset.obj
 0001:0000a1c5       MsetTab                    000000018000b1c5     LIBCMT:memset.obj
 0001:0000abb4       ?__crtLCMapStringA_stat@@YAHPEAUlocaleinfo_struct@@PEB_WKPEBDHPEADHHH@Z 000000018000bbb4 f   LIBCMT:a_map.obj
 0001:0000ba70       $$000000                   000000018000ca70     LIBCMT:strcmp.obj
 0001:0000bc4c       ?x_ismbbtype_l@@YAHPEAUlocaleinfo_struct@@IHH@Z 000000018000cc4c f   LIBCMT:ismbbyte.obj
 0001:0000be70       $$000000                   000000018000ce70     LIBCMT:memcmp.obj
 0001:0000c0fc       __crtEnumLocalesProc       000000018000d0fc f   LIBCMT:winapinls.obj
 0001:0000c908       xtow_s                     000000018000d908 f   LIBCMT:xtows.obj
 0001:0000da18       ?getSystemCP@@YAHH@Z       000000018000ea18 f   LIBCMT:mbctype.obj
 0001:0000da98       ?setSBCS@@YAXPEAUthreadmbcinfostruct@@@Z 000000018000ea98 f   LIBCMT:mbctype.obj
 0001:0000db28       ?setSBUpLow@@YAXPEAUthreadmbcinfostruct@@@Z 000000018000eb28 f   LIBCMT:mbctype.obj
 0001:0000ee10       _copytlocinfo_nolock       000000018000fe10 f   LIBCMT:wsetloca.obj
 0001:0000f4a4       _wsetlocale_get_all        00000001800104a4 f   LIBCMT:wsetloca.obj
 0001:0000f678       _wsetlocale_nolock         0000000180010678 f   LIBCMT:wsetloca.obj
 0001:0000f8e4       _wsetlocale_set_cat        00000001800108e4 f   LIBCMT:wsetloca.obj
 0001:00010298       parse_cmdline              0000000180011298 f   LIBCMT:stdargv.obj
 0001:00010814       ?CatchIt@@YAXPEAUEHExceptionRecord@@PEA_KPEAU_CONTEXT@@PEAU_xDISPATCHER_CONTEXT@@PEBU_s_FuncInfo@@PEBU_s_HandlerType@@PEBU_s_CatchableType@@PEBU_s_TryBlockMapEntry@@H1EE@Z 0000000180011814 f   LIBCMT:frame.obj
 0001:000108d8       ?FindHandler@@YAXPEAUEHExceptionRecord@@PEA_KPEAU_CONTEXT@@PEAU_xDISPATCHER_CONTEXT@@PEBU_s_FuncInfo@@EH1@Z 00000001800118d8 f   LIBCMT:frame.obj
 0001:00010d8c       ?FindHandlerForForeignException@@YAXPEAUEHExceptionRecord@@PEA_KPEAU_CONTEXT@@PEAU_xDISPATCHER_CONTEXT@@PEBU_s_FuncInfo@@HH1@Z 0000000180011d8c f   LIBCMT:frame.obj
 0001:00010ff4       ?IsInExceptionSpec@@YAEPEAUEHExceptionRecord@@PEBU_s_ESTypeList@@@Z 0000000180011ff4 f   LIBCMT:frame.obj
 0001:00012128       _cftoe2_l                  0000000180013128 f   LIBCMT:cvt.obj
 0001:0001241c       _cftof2_l                  000000018001341c f   LIBCMT:cvt.obj
 0001:00013ed8       ?__crtGetStringTypeA_stat@@YAHPEAUlocaleinfo_struct@@KPEBDHPEAGHH@Z 0000000180014ed8 f   LIBCMT:a_str.obj
 0001:000140d0       $$000000                   00000001800150d0     LIBCMT:chkstk.obj
 0001:000156a0       write_char                 00000001800166a0 f   LIBCMT:woutput.obj
 0001:000156d8       write_multi_char           00000001800166d8 f   LIBCMT:woutput.obj
 0001:0001572c       write_string               000000018001672c f   LIBCMT:woutput.obj
 0001:000158a0       $$000000                   00000001800168a0     LIBCMT:jmpuwind.obj
 0001:000159d0       ?__crtGetLocaleInfoA_stat@@YAHPEAUlocaleinfo_struct@@PEB_WKPEADH@Z 00000001800169d0 f   LIBCMT:a_loc.obj
 0001:00015bb0       $$000000                   0000000180016bb0     LIBCMT:fpsr.obj
 0001:00016a58       _get_lc_time               0000000180017a58 f   LIBCMT:inittime.obj
 0001:000176b8       GetLocaleNameFromLangCountry 00000001800186b8 f   LIBCMT:getqloc.obj
 0001:00017768       GetLocaleNameFromLanguage  0000000180018768 f   LIBCMT:getqloc.obj
 0001:000177f0       LangCountryEnumProcEx      00000001800187f0 f   LIBCMT:getqloc.obj
 0001:00017b7c       LanguageEnumProcEx         0000000180018b7c f   LIBCMT:getqloc.obj
 0001:00017c5c       ProcessCodePage            0000000180018c5c f   LIBCMT:getqloc.obj
 0001:00017d10       TestDefaultCountry         0000000180018d10 f   LIBCMT:getqloc.obj
 0001:00018004       CountryEnumProc            0000000180019004 f   LIBCMT:getqloc_downlevel.obj
 0001:000180f0       GetLcidFromLangCountry     00000001800190f0 f   LIBCMT:getqloc_downlevel.obj
 0001:000181a4       GetLcidFromLanguage        00000001800191a4 f   LIBCMT:getqloc_downlevel.obj
 0001:00018238       LangCountryEnumProc        0000000180019238 f   LIBCMT:getqloc_downlevel.obj
 0001:00018468       LanguageEnumProc           0000000180019468 f   LIBCMT:getqloc_downlevel.obj
 0001:00018564       LcidFromHexString          0000000180019564 f   LIBCMT:getqloc_downlevel.obj
 0001:000185b4       ProcessCodePage            00000001800195b4 f   LIBCMT:getqloc_downlevel.obj
 0001:00018664       TestDefaultLanguage        0000000180019664 f   LIBCMT:getqloc_downlevel.obj
 0001:0001870c       TranslateName              000000018001970c f   LIBCMT:getqloc_downlevel.obj
 0001:0001870c       TranslateName              000000018001970c f   LIBCMT:getqloc_downlevel.obj
 0001:00018a50       $$000000                   0000000180019a50     LIBCMT:handlers.obj
 0001:0001a1e8       ?wcstoxl@@YAKPEB_WPEAPEB_WHH@Z 000000018001b1e8 f   LIBCMT:wcstol.obj
 0001:0001cd30       ?dtor$0@?0???$use_facet@V?$codecvt@DDH@std@@@std@@YAAEBV?$codecvt@DDH@0@AEBVlocale@0@@Z@4HA 000000018001dd30 f   libcpmt:cerr.obj
 0001:0001cd30       ?dtor$0@?0???$use_facet@V?$ctype@D@std@@@std@@YAAEBV?$ctype@D@0@AEBVlocale@0@@Z@4HA 000000018001dd30 f   libcpmt:cerr.obj
 0001:0001cd3c       ?dtor$0@?0???0?$basic_ostream@DU?$char_traits@D@std@@@std@@QEAA@PEAV?$basic_streambuf@DU?$char_traits@D@std@@@1@_N@Z@4HA 000000018001dd3c f   libcpmt:cerr.obj
 0001:0001cd66       ?dtor$0@?0???0_Locinfo@std@@QEAA@PEBD@Z@4HA 000000018001dd66 f   libcpmt:cerr.obj
 0001:0001cd72       ?dtor$1@?0???0_Locinfo@std@@QEAA@PEBD@Z@4HA 000000018001dd72 f   libcpmt:cerr.obj
 0001:0001cd82       ?dtor$2@?0???0_Locinfo@std@@QEAA@PEBD@Z@4HA 000000018001dd82 f   libcpmt:cerr.obj
 0001:0001cd92       ?dtor$3@?0???0_Locinfo@std@@QEAA@PEBD@Z@4HA 000000018001dd92 f   libcpmt:cerr.obj
 0001:0001cda2       ?dtor$4@?0???0_Locinfo@std@@QEAA@PEBD@Z@4HA 000000018001dda2 f   libcpmt:cerr.obj
 0001:0001cdb2       ?dtor$5@?0???0_Locinfo@std@@QEAA@PEBD@Z@4HA 000000018001ddb2 f   libcpmt:cerr.obj
 0001:0001cdc2       ?dtor$6@?0???0_Locinfo@std@@QEAA@PEBD@Z@4HA 000000018001ddc2 f   libcpmt:cerr.obj
 0001:0001cdd2       ?dtor$0@?0??_Endwrite@?$basic_filebuf@DU?$char_traits@D@std@@@std@@IEAA_NXZ@4HA 000000018001ddd2 f   libcpmt:cerr.obj
 0001:0001cdde       ?dtor$0@?0??_Getcat@?$codecvt@DDH@std@@SA_KPEAPEBVfacet@locale@2@PEBV42@@Z@4HA 000000018001ddde f   libcpmt:cerr.obj
 0001:0001cdea       ?dtor$0@?0??_Getcat@?$ctype@D@std@@SA_KPEAPEBVfacet@locale@2@PEBV42@@Z@4HA 000000018001ddea f   libcpmt:cerr.obj
 0001:0001cdf6       ?dtor$0@?0??init@?$basic_ios@DU?$char_traits@D@std@@@std@@IEAAXPEAV?$basic_streambuf@DU?$char_traits@D@std@@@2@_N@Z@4HA 000000018001ddf6 f   libcpmt:cerr.obj
 0001:0001ce02       ?dtor$0@?0??overflow@?$basic_filebuf@DU?$char_traits@D@std@@@std@@MEAAHH@Z@4HA 000000018001de02 f   libcpmt:cerr.obj
 0001:0001ce02       ?dtor$0@?0??uflow@?$basic_filebuf@DU?$char_traits@D@std@@@std@@MEAAHXZ@4HA 000000018001de02 f   libcpmt:cerr.obj
 0001:0001ce0e       ?dtor$0@?0??_Locimp_dtor@_Locimp@locale@std@@CAXPEAV123@@Z@4HA 000000018001de0e f   libcpmt:locale0.obj
 0001:0001ce0e       ?dtor$0@?0??_Init@locale@std@@CAPEAV_Locimp@12@_N@Z@4HA 000000018001de0e f   libcpmt:locale0.obj
 0001:0001ce1a       _onexit$fin$0              000000018001de1a f   LIBCMT:onexit.obj
 0001:0001ce2e       doexit$fin$0               000000018001de2e f   LIBCMT:crt0dat.obj
 0001:0001ce52       _CRT_INIT$fin$0            000000018001de52 f   LIBCMT:dllcrt0.obj
 0001:0001ce78       __DllMainCRTStartup$filt$0 000000018001de78 f   LIBCMT:dllcrt0.obj
 0001:0001cec1       _CallSETranslator$filt$0   000000018001dec1 f   LIBCMT:trnsctrl.obj
 0001:0001cf07       _ftelli64$fin$0            000000018001df07 f   LIBCMT:fclose.obj
 0001:0001cf07       _fseeki64$fin$0            000000018001df07 f   LIBCMT:fclose.obj
 0001:0001cf07       fflush$fin$0               000000018001df07 f   LIBCMT:fclose.obj
 0001:0001cf07       fclose$fin$0               000000018001df07 f   LIBCMT:fclose.obj
 0001:0001cf07       fgetc$fin$0                000000018001df07 f   LIBCMT:fclose.obj
 0001:0001cf1f       flsall$fin$0               000000018001df1f f   LIBCMT:fflush.obj
 0001:0001cf47       flsall$fin$1               000000018001df47 f   LIBCMT:fflush.obj
 0001:0001cf60       ungetc$fin$0               000000018001df60 f   LIBCMT:fputc.obj
 0001:0001cf60       fputc$fin$0                000000018001df60 f   LIBCMT:fputc.obj
 0001:0001cf78       fwrite$fin$0               000000018001df78 f   LIBCMT:fwrite.obj
 0001:0001cf90       setvbuf$fin$0              000000018001df90 f   LIBCMT:setvbuf.obj
 0001:0001cfa8       _mtinitlocknum$fin$0       000000018001dfa8 f   LIBCMT:mlock.obj
 0001:0001cfc5       setlocale$fin$0            000000018001dfc5 f   LIBCMT:setlocal.obj
 0001:0001cfe0       fwprintf$fin$0             000000018001dfe0 f   LIBCMT:fwprintf.obj
 0001:0001cffa       raise$fin$0                000000018001dffa f   LIBCMT:winsig.obj
 0001:0001d020       _IsNonwritableInCurrentImage$filt$0 000000018001e020 f   LIBCMT:pesect.obj
 0001:0001d040       _setmbcp$fin$0             000000018001e040 f   LIBCMT:mbctype.obj
 0001:0001d040       __updatetmbcinfo$fin$0     000000018001e040 f   LIBCMT:mbctype.obj
 0001:0001d059       __updatetlocinfo$fin$0     000000018001e059 f   LIBCMT:localref.obj
 0001:0001d059       _locterm$fin$0             000000018001e059 f   LIBCMT:localref.obj
 0001:0001d072       _freefls$fin$1             000000018001e072 f   LIBCMT:tidtable.obj
 0001:0001d072       _initptd$fin$1             000000018001e072 f   LIBCMT:tidtable.obj
 0001:0001d08b       _freefls$fin$0             000000018001e08b f   LIBCMT:tidtable.obj
 0001:0001d08b       _initptd$fin$0             000000018001e08b f   LIBCMT:tidtable.obj
 0001:0001d0a4       _wsetlocale$fin$1          000000018001e0a4 f   LIBCMT:wsetloca.obj
 0001:0001d0bf       _wsetlocale$fin$0          000000018001e0bf f   LIBCMT:wsetloca.obj
 0001:0001d0da       _wsetlocale$fin$2          000000018001e0da f   LIBCMT:wsetloca.obj
 0001:0001d0f5       _ioinit$fin$0              000000018001e0f5 f   LIBCMT:ioinit.obj
 0001:0001d110       __CxxCallCatchBlock$filt$0 000000018001e110 f   LIBCMT:frame.obj
 0001:0001d204       __CxxCallCatchBlock$fin$1  000000018001e204 f   LIBCMT:frame.obj
 0001:0001d282       __DestructExceptionObject$filt$0 000000018001e282 f   LIBCMT:frame.obj
 0001:0001d29a       __FrameUnwindToState$filt$0 000000018001e29a f   LIBCMT:frame.obj
 0001:0001d2b0       __FrameUnwindToState$fin$1 000000018001e2b0 f   LIBCMT:frame.obj
 0001:0001d2d9       ?fin$0@?0??_Type_info_dtor@type_info@@CAXPEAV1@@Z@4HA 000000018001e2d9 f   LIBCMT:typname.obj
 0001:0001d2f2       _fcloseall$fin$0           000000018001e2f2 f   LIBCMT:closeall.obj
 0001:0001d30b       _close$fin$0               000000018001e30b f   LIBCMT:close.obj
 0001:0001d30b       _commit$fin$0              000000018001e30b f   LIBCMT:close.obj
 0001:0001d322       _write$fin$0               000000018001e322 f   LIBCMT:write.obj
 0001:0001d322       _lseeki64$fin$0            000000018001e322 f   LIBCMT:write.obj
 0001:0001d322       _read$fin$0                000000018001e322 f   LIBCMT:write.obj
 0001:0001d339       __lock_fhandle$fin$0       000000018001e339 f   LIBCMT:osfinfo.obj
 0001:0001d360       ??__F?tmpl@Fiber@@0V?$Persistent@VFunctionTemplate@v8@@V?$NonCopyablePersistentTraits@VFunctionTemplate@v8@@@2@@v8@@A@@YAXXZ 000000018001e360 f   fibers.obj
 0001:0001d370       ??__F?fiber_object@Fiber@@0V?$Persistent@VFunction@v8@@V?$NonCopyablePersistentTraits@VFunction@v8@@@2@@v8@@A@@YAXXZ 000000018001e370 f   fibers.obj
 0001:0001d380       ??__F?orphaned_fibers@Fiber@@0V?$vector@PEAVFiber@@V?$allocator@PEAVFiber@@@std@@@std@@A@@YAXXZ 000000018001e380 f   fibers.obj
 0001:0001d3d0       ??__F?fatal_stack@Fiber@@0V?$Persistent@VValue@v8@@V?$NonCopyablePersistentTraits@VValue@v8@@@2@@v8@@A@@YAXXZ 000000018001e3d0 f   fibers.obj
 0001:0001d3e0       ??__Ffls_data_pool@@YAXXZ  000000018001e3e0 f   coroutine.obj
 0001:0001d430       ??__Ffiber_pool@@YAXXZ     000000018001e430 f   coroutine.obj
 0001:0001d474       ??__Fcerr@std@@YAXXZ       000000018001e474 f   libcpmt:cerr.obj
 0001:0001d4c0       ??__Fferr@std@@YAXXZ       000000018001e4c0 f   libcpmt:cerr.obj
 0001:0001d4cc       ??__Finitlocks@@YAXXZ      000000018001e4cc f   libcpmt:cerr.obj
 0001:0001d4d8       ??__Finitlocks@std@@YAXXZ  000000018001e4d8 f   libcpmt:xlock.obj
 0001:0001d4e4       ??__F_Fac_tidy_reg@std@@YAXXZ 000000018001e4e4 f   libcpmt:locale0.obj
 0001:0001d530       ??__Fclassic_locale@std@@YAXXZ 000000018001e530 f   libcpmt:locale0.obj
 0001:0001d560       ??__Finit_atexit@@YAXXZ    000000018001e560 f   libcpmt:iosptrs.obj
 0001:0001d59c       ??__Finitlocks@std@@YAXXZ  000000018001e59c f   libcpmt:iosptrs.obj
 0002:00000298       initlocks$initializer$     000000018001f298     libcpmt:cerr.obj
 0002:000002a0       ferr$initializer$          000000018001f2a0     libcpmt:cerr.obj
 0002:000002a8       cerr$initializer$          000000018001f2a8     libcpmt:cerr.obj
 0002:000002b0       init_cerr$initializer$     000000018001f2b0     libcpmt:cerr.obj
 0002:000002b8       initlocks$initializer$     000000018001f2b8     libcpmt:xlock.obj
 0002:000002c0       initlocks$initializer$     000000018001f2c0     libcpmt:iosptrs.obj
 0002:000002c8       init_atexit$initializer$   000000018001f2c8     libcpmt:iosptrs.obj
 0002:000002d0       _Fac_tidy_reg$initializer$ 000000018001f2d0     libcpmt:locale0.obj
 0002:000002d8       classic_locale$initializer$ 000000018001f2d8     libcpmt:locale0.obj
 0002:000002e0       ?fatal_stack$initializer$@Fiber@@0P6AXXZEA 000000018001f2e0     fibers.obj
 0002:000002e8       piecewise_construct$initializer$ 000000018001f2e8     fibers.obj
 0002:000002f0       allocator_arg$initializer$ 000000018001f2f0     fibers.obj
 0002:000002f8       ?fiber_object$initializer$@Fiber@@0P6AXXZEA 000000018001f2f8     fibers.obj
 0002:00000300       ?tmpl$initializer$@Fiber@@0P6AXXZEA 000000018001f300     fibers.obj
 0002:00000308       ?orphaned_fibers$initializer$@Fiber@@0P6AXXZEA 000000018001f308     fibers.obj
 0002:00000310       piecewise_construct$initializer$ 000000018001f310     coroutine.obj
 0002:00000318       allocator_arg$initializer$ 000000018001f318     coroutine.obj
 0002:00000320       fls_data_pool$initializer$ 000000018001f320     coroutine.obj
 0002:00000328       fiber_pool$initializer$    000000018001f328     coroutine.obj
 0002:00000348       pinit                      000000018001f348     LIBCMT:onexit.obj
 0002:00000350       pinit                      000000018001f350     LIBCMT:_file.obj
 0002:00000358       pinit                      000000018001f358     LIBCMT:cpu_disp.obj
 0002:00000360       pinit                      000000018001f360     LIBCMT:mbctype.obj
 0002:00000378       pterm                      000000018001f378     LIBCMT:wsetloca.obj
 0002:00000380       pterm                      000000018001f380     LIBCMT:initcon.obj
 0002:00000388       pterm                      000000018001f388     LIBCMT:_file.obj
 0002:00000400       _Win_errtab                000000018001f400     libcpmt:syserror.obj
 0002:000008b0       _Sys_errtab                000000018001f8b0     libcpmt:syserror.obj
 0002:00001778       $cppxdata$??0_Locinfo@std@@QEAA@PEBD@Z 0000000180020778     libcpmt:cerr.obj
 0002:000017a0       $cppxdata$?_Getcat@?$ctype@D@std@@SA_KPEAPEBVfacet@locale@2@PEBV42@@Z 00000001800207a0     libcpmt:cerr.obj
 0002:000017c8       $cppxdata$??$use_facet@V?$ctype@D@std@@@std@@YAAEBV?$ctype@D@0@AEBVlocale@0@@Z 00000001800207c8     libcpmt:cerr.obj
 0002:000017f0       $cppxdata$?init@?$basic_ios@DU?$char_traits@D@std@@@std@@IEAAXPEAV?$basic_streambuf@DU?$char_traits@D@std@@@2@_N@Z 00000001800207f0     libcpmt:cerr.obj
 0002:00001818       $cppxdata$??0?$basic_ostream@DU?$char_traits@D@std@@@std@@QEAA@PEAV?$basic_streambuf@DU?$char_traits@D@std@@@1@_N@Z 0000000180020818     libcpmt:cerr.obj
 0002:00001840       $cppxdata$?overflow@?$basic_filebuf@DU?$char_traits@D@std@@@std@@MEAAHH@Z 0000000180020840     libcpmt:cerr.obj
 0002:00001868       $cppxdata$?uflow@?$basic_filebuf@DU?$char_traits@D@std@@@std@@MEAAHXZ 0000000180020868     libcpmt:cerr.obj
 0002:00001890       $cppxdata$?_Endwrite@?$basic_filebuf@DU?$char_traits@D@std@@@std@@IEAA_NXZ 0000000180020890     libcpmt:cerr.obj
 0002:000018b8       $cppxdata$?_Getcat@?$codecvt@DDH@std@@SA_KPEAPEBVfacet@locale@2@PEBV42@@Z 00000001800208b8     libcpmt:cerr.obj
 0002:000018e0       $cppxdata$??$use_facet@V?$codecvt@DDH@std@@@std@@YAAEBV?$codecvt@DDH@0@AEBVlocale@0@@Z 00000001800208e0     libcpmt:cerr.obj
 0002:00001b70       $cppxdata$?_Locimp_dtor@_Locimp@locale@std@@CAXPEAV123@@Z 0000000180020b70     libcpmt:locale0.obj
 0002:00001b98       $cppxdata$?_Init@locale@std@@CAPEAV_Locimp@12@_N@Z 0000000180020b98     libcpmt:locale0.obj
 0002:00001bf8       digits                     0000000180020bf8     libcpmt:xstoul.obj
 0002:00001c20       ndigs                      0000000180020c20     libcpmt:xstoul.obj
 0002:00001c48       digits                     0000000180020c48     libcpmt:xstoull.obj
 0002:00001c70       ndigs                      0000000180020c70     libcpmt:xstoull.obj
 0002:00001c98       ?digits@?1??_Stoxflt@@9@9  0000000180020c98     libcpmt:xstoxflt.obj
 0002:00001cb0       ?vals@?1??_Stoxflt@@9@9    0000000180020cb0     libcpmt:xstoxflt.obj
 0002:00001cc8       tenth                      0000000180020cc8     libcpmt:xfdtento.obj
 0002:00001ce0       tenth                      0000000180020ce0     libcpmt:xdtento.obj
 0002:00001cf8       tenth                      0000000180020cf8     libcpmt:xldtento.obj
 0002:00001d10       ?mask@?3??_FDint@@9@9      0000000180020d10     libcpmt:xfdint.obj
 0002:00001d30       ?sub@?3??_FDint@@9@9       0000000180020d30     libcpmt:xfdint.obj
 0002:00001d40       ?mask@?3??_Dint@@9@9       0000000180020d40     libcpmt:xdint.obj
 0002:00001d60       ?sub@?3??_Dint@@9@9        0000000180020d60     libcpmt:xdint.obj
 0002:00002040       ?ExceptionTemplate@?1??_CxxThrowException@@9@4UEHExceptionRecord@@B 0000000180021040     LIBCMT:throw.obj
 0002:00002080       ?ExceptionTemplate@?1??_UnwindNestedFrames@@9@4U_EXCEPTION_RECORD@@B 0000000180021080     LIBCMT:trnsctrl.obj
 0002:00006008       GS_ExceptionPointers       0000000180025008     LIBCMT:gs_report.obj
 0002:000060a0       rterrs                     00000001800250a0     LIBCMT:crt0msg.obj
 0002:00006b78       _mb_locale_names           0000000180025b78     LIBCMT:mbctype.obj
 0002:00007060       _first_127char             0000000180026060     LIBCMT:wsetloca.obj
 0002:00007390       __real@433fffffffffffff    0000000180026390     LIBCMT:fpsr.obj
 0002:00007398       __real@c33fffffffffffff    0000000180026398     LIBCMT:fpsr.obj
 0002:00008360       tokenTable                 0000000180027360     LIBCMT:undname.obj
 0002:000083d0       nameTable                  00000001800273d0     LIBCMT:undname.obj
 0002:00008650       rttiTable                  0000000180027650     LIBCMT:undname.obj
 0002:0000a280       $unwind$strncpy_s          0000000180029280     LIBCMT:strncpy_s.obj
 0002:0000a280       $unwind$_freeptd           0000000180029280     LIBCMT:tidtable.obj
 0002:0000a280       $unwind$wcscat_s           0000000180029280     LIBCMT:wcscat_s.obj
 0002:0000a280       $unwind$??0exception@std@@QEAA@AEBQEBD@Z 0000000180029280     LIBCMT:stdexcpt.obj
 0002:0000a280       $unwind$wcscpy_s           0000000180029280     LIBCMT:wcscpy_s.obj
 0002:0000a280       $unwind$_getbuf            0000000180029280     LIBCMT:_getbuf.obj
 0002:0000a280       $unwind$??_G?$codecvt@DDH@std@@MEAAPEAXI@Z 0000000180029280     libcpmt:cerr.obj
 0002:0000a280       $unwind$?do_narrow@?$ctype@D@std@@MEBAPEBDPEBD0DPEAD@Z 0000000180029280     libcpmt:cerr.obj
 0002:0000a280       $unwind$write_char         0000000180029280     LIBCMT:woutput.obj
 0002:0000a280       $unwind$?do_widen@?$ctype@D@std@@MEBAPEBDPEBD0PEAD@Z 0000000180029280     libcpmt:cerr.obj
 0002:0000a280       $unwind$wcsncat_s          0000000180029280     LIBCMT:wcsncat_s.obj
 0002:0000a280       $unwind$__crtExitProcess   0000000180029280     LIBCMT:crt0dat.obj
 0002:0000a280       $unwind$wcsncpy_s          0000000180029280     LIBCMT:wcsncpy_s.obj
 0002:0000a280       $unwind$_getptd            0000000180029280     LIBCMT:tidtable.obj
 0002:0000a280       $unwind$_callnewh          0000000180029280     LIBCMT:handler.obj
 0002:0000a280       $unwind$??0bad_exception@std@@QEAA@AEBV01@@Z 0000000180029280     LIBCMT:frame.obj
 0002:0000a280       $unwind$_SetThrowImageBase 0000000180029280     LIBCMT:trnsctrl.obj
 0002:0000a280       $unwind$??0_LocaleUpdate@@QEAA@PEAUlocaleinfo_struct@@@Z 0000000180029280     LIBCMT:stricmp.obj
 0002:0000a280       $unwind$__onexitinit       0000000180029280     LIBCMT:onexit.obj
 0002:0000a280       $unwind$?trampoline@Coroutine@@CAXPEAX@Z 0000000180029280     coroutine.obj
 0002:0000a280       $unwind$??__Eferr@std@@YAXXZ 0000000180029280     libcpmt:cerr.obj
 0002:0000a280       $unwind$??1?$basic_string@DU?$char_traits@D@std@@V?$allocator@D@2@@std@@QEAA@XZ 0000000180029280     fibers.obj
 0002:0000a280       $unwind$calloc             0000000180029280     LIBCMT:calloc.obj
 0002:0000a280       $unwind$??_GCoroutine@@AEAAPEAXI@Z 0000000180029280     coroutine.obj
 0002:0000a280       $unwind$_amsg_exit         0000000180029280     LIBCMT:crt0dat.obj
 0002:0000a280       $unwind$?_Facet_Register@std@@YAXPEAV_Facet_base@1@@Z 0000000180029280     libcpmt:locale0.obj
 0002:0000a280       $unwind$??_G_Facet_base@std@@UEAAPEAXI@Z 0000000180029280     libcpmt:cerr.obj
 0002:0000a280       $unwind$??__F_Fac_tidy_reg@std@@YAXXZ 0000000180029280     libcpmt:locale0.obj
 0002:0000a280       $unwind$strcpy_s           0000000180029280     LIBCMT:strcpy_s.obj
 0002:0000a280       $unwind$__crtIsPackagedApp 0000000180029280     LIBCMT:winapisupp.obj
 0002:0000a280       $unwind$_SetImageBase      0000000180029280     LIBCMT:trnsctrl.obj
 0002:0000a280       $unwind$__crtUnhandledException 0000000180029280     LIBCMT:winapisupp.obj
 0002:0000a280       $unwind$__crtTerminateProcess 0000000180029280     LIBCMT:winapisupp.obj
 0002:0000a280       $unwind$??0runtime_error@std@@QEAA@AEBV01@@Z 0000000180029280     libcpmt:xthrow.obj
 0002:0000a280       $unwind$__crtLoadWinApiPointers 0000000180029280     LIBCMT:winapisupp.obj
 0002:0000a280       $unwind$??1?$_Yarn@_W@std@@QEAA@XZ 0000000180029280     libcpmt:cerr.obj
 0002:0000a280       $unwind$??0out_of_range@std@@QEAA@AEBV01@@Z 0000000180029280     libcpmt:xthrow.obj
 0002:0000a280       $unwind$??1?$_Yarn@D@std@@QEAA@XZ 0000000180029280     libcpmt:cerr.obj
 0002:0000a280       $unwind$??0length_error@std@@QEAA@AEBV01@@Z 0000000180029280     libcpmt:xthrow.obj
 0002:0000a280       $unwind$_freebuf           0000000180029280     LIBCMT:_freebuf.obj
 0002:0000a280       $unwind$_init_pointers     0000000180029280     LIBCMT:crt0dat.obj
 0002:0000a280       $unwind$??_Gexception@stdext@@UEAAPEAXI@Z 0000000180029280     fibers.obj
 0002:0000a280       $unwind$??_Gruntime_error@std@@UEAAPEAXI@Z 0000000180029280     fibers.obj
 0002:0000a280       $unwind$??0logic_error@std@@QEAA@AEBV01@@Z 0000000180029280     libcpmt:xthrow.obj
 0002:0000a280       $unwind$??1_Locinfo@std@@QEAA@XZ 0000000180029280     libcpmt:cerr.obj
 0002:0000a280       $unwind$??0exception@std@@QEAA@AEBV01@@Z 0000000180029280     LIBCMT:stdexcpt.obj
 0002:0000a280       $unwind$_fflush_nolock     0000000180029280     LIBCMT:fflush.obj
 0002:0000a280       $unwind$?uflow@?$basic_streambuf@DU?$char_traits@D@std@@@std@@MEAAHXZ 0000000180029280     libcpmt:cerr.obj
 0002:0000a280       $unwind$_mtinit            0000000180029280     LIBCMT:tidtable.obj
 0002:0000a280       $unwind$?_Ios_base_dtor@ios_base@std@@CAXPEAV12@@Z 0000000180029280     libcpmt:ios.obj
 0002:0000a280       $unwind$?GetStarted@Fiber@@CAXV?$Local@VString@v8@@@v8@@AEBV?$PropertyCallbackInfo@VValue@v8@@@3@@Z 0000000180029280     fibers.obj
 0002:0000a280       $unwind$load_exe_hook      0000000180029280     win_delay_load_hook.obj
 0002:0000a280       $unwind$??_G_System_error@std@@UEAAPEAXI@Z 0000000180029280     fibers.obj
 0002:0000a280       $unwind$GetLocaleNameFromLangCountry 0000000180029280     LIBCMT:getqloc.obj
 0002:0000a280       $unwind$??0bad_cast@std@@QEAA@AEBV01@@Z 0000000180029280     LIBCMT:stdexcpt.obj
 0002:0000a280       $unwind$_IsExceptionObjectToBeDestroyed 0000000180029280     LIBCMT:trnsctrl.obj
 0002:0000a280       $unwind$?_Setgloballocale@locale@std@@CAXPEAX@Z 0000000180029280     libcpmt:locale0.obj
 0002:0000a280       $unwind$?_Tidy@exception@std@@AEAAXXZ 0000000180029280     LIBCMT:stdexcpt.obj
 0002:0000a280       $unwind$_Getctype          0000000180029280     libcpmt:_tolower.obj
 0002:0000a280       $unwind$_CreateFrameInfo   0000000180029280     LIBCMT:trnsctrl.obj
 0002:0000a280       $unwind$?setbuf@?$basic_filebuf@DU?$char_traits@D@std@@@std@@MEAAPEAV?$basic_streambuf@DU?$char_traits@D@std@@@2@PEAD_J@Z 0000000180029280     libcpmt:cerr.obj
 0002:0000a280       $unwind$GetLocaleNameFromLanguage 0000000180029280     LIBCMT:getqloc.obj
 0002:0000a280       $unwind$?__GetUnwindTryBlock@@YAHPEA_KPEAU_xDISPATCHER_CONTEXT@@PEBU_s_FuncInfo@@@Z 0000000180029280     LIBCMT:ehstate.obj
 0002:0000a280       $unwind$__raise_securityfailure 0000000180029280     LIBCMT:gs_report.obj
 0002:0000a280       $unwind$?_Addstd@ios_base@std@@SAXPEAV12@@Z 0000000180029280     libcpmt:ios.obj
 0002:0000a280       $unwind$??_Gfailure@ios_base@std@@UEAAPEAXI@Z 0000000180029280     fibers.obj
 0002:0000a280       $unwind$__crtCorExitProcess 0000000180029280     LIBCMT:crt0dat.obj
 0002:0000a280       $unwind$_lock_file         0000000180029280     LIBCMT:_file.obj
 0002:0000a280       $unwind$_cinit             0000000180029280     LIBCMT:crt0dat.obj
 0002:0000a280       $unwind$??0_Lockit@std@@QEAA@H@Z 0000000180029280     libcpmt:xlock.obj
 0002:0000a280       $unwind$??1Fiber@@EEAA@XZ  0000000180029280     fibers.obj
 0002:0000a280       $unwind$??0bad_alloc@std@@QEAA@AEBV01@@Z 0000000180029280     libcpmt:xthrow.obj
 0002:0000a280       $unwind$??1?$basic_filebuf@DU?$char_traits@D@std@@@std@@UEAA@XZ 0000000180029280     libcpmt:cerr.obj
 0002:0000a280       $unwind$?imbue@?$basic_filebuf@DU?$char_traits@D@std@@@std@@MEAAXAEBVlocale@2@@Z 0000000180029280     libcpmt:cerr.obj
 0002:0000a280       $unwind$_lock_file2        0000000180029280     LIBCMT:_file.obj
 0002:0000a280       $unwind$__GSHandlerCheckCommon 0000000180029280     LIBCMT:gshandler.obj
 0002:0000a280       $unwind$?WeakCallback@Fiber@@CAXPEAX@Z 0000000180029280     fibers.obj
 0002:0000a280       $unwind$?GetCurrent@Fiber@@CAXV?$Local@VString@v8@@@v8@@AEBV?$PropertyCallbackInfo@VValue@v8@@@3@@Z 0000000180029280     fibers.obj
 0002:0000a288       $unwind$??0_System_error@std@@IEAA@Verror_code@1@AEBV?$basic_string@DU?$char_traits@D@std@@V?$allocator@D@2@@1@@Z 0000000180029288     fibers.obj
 0002:0000a2a4       $unwind$?clear@ios_base@std@@QEAAXH_N@Z 00000001800292a4     fibers.obj
 0002:0000a2b8       $chain$0$?clear@ios_base@std@@QEAAXH_N@Z 00000001800292b8     fibers.obj
 0002:0000a2cc       $chain$1$?clear@ios_base@std@@QEAAXH_N@Z 00000001800292cc     fibers.obj
 0002:0000a2dc       $chain$2$?clear@ios_base@std@@QEAAXH_N@Z 00000001800292dc     fibers.obj
 0002:0000a2f0       $unwind$?AdjustAmountOfExternalAllocatedMemory@uni@@YAXPEAVIsolate@v8@@_J@Z 00000001800292f0     fibers.obj
 0002:0000a2f0       $unwind$?_Initcvt@?$basic_filebuf@DU?$char_traits@D@std@@@std@@IEAAXPEBV?$codecvt@DDH@2@@Z 00000001800292f0     libcpmt:cerr.obj
 0002:0000a2f0       $unwind$?sync@?$basic_filebuf@DU?$char_traits@D@std@@@std@@MEAAHXZ 00000001800292f0     libcpmt:cerr.obj
 0002:0000a2f0       $unwind$?erase@?$basic_string@DU?$char_traits@D@std@@V?$allocator@D@2@@std@@QEAAAEAV12@_K0@Z 00000001800292f0     fibers.obj
 0002:0000a2f0       $unwind$__initstdio        00000001800292f0     LIBCMT:_file.obj
 0002:0000a2f0       $unwind$?__SetUnwindTryBlock@@YAXPEA_KPEAU_xDISPATCHER_CONTEXT@@PEBU_s_FuncInfo@@H@Z 00000001800292f0     LIBCMT:ehstate.obj
 0002:0000a2f0       $unwind$??_Gbad_alloc@std@@UEAAPEAXI@Z 00000001800292f0     libcpmt:xthrow.obj
 0002:0000a2f0       $unwind$??_G?$basic_ostream@DU?$char_traits@D@std@@@std@@UEAAPEAXI@Z 00000001800292f0     libcpmt:cerr.obj
 0002:0000a2f0       $unwind$_initterm_e        00000001800292f0     LIBCMT:crt0dat.obj
 0002:0000a2f0       $unwind$??_G_Locimp@locale@std@@MEAAPEAXI@Z 00000001800292f0     libcpmt:locale0.obj
 0002:0000a2f0       $unwind$?_New_Locimp@_Locimp@locale@std@@CAPEAV123@_N@Z 00000001800292f0     libcpmt:locale0.obj
 0002:0000a2f0       $unwind$??_G?$basic_filebuf@DU?$char_traits@D@std@@@std@@UEAAPEAXI@Z 00000001800292f0     libcpmt:cerr.obj
 0002:0000a2f0       $unwind$??_Glogic_error@std@@UEAAPEAXI@Z 00000001800292f0     libcpmt:xthrow.obj
 0002:0000a2f0       $unwind$??_Glength_error@std@@UEAAPEAXI@Z 00000001800292f0     libcpmt:xthrow.obj
 0002:0000a2f0       $unwind$?_Locinfo_ctor@_Locinfo@std@@SAXPEAV12@PEBD@Z 00000001800292f0     libcpmt:locale0.obj
 0002:0000a2f0       $unwind$??_Gout_of_range@std@@UEAAPEAXI@Z 00000001800292f0     libcpmt:xthrow.obj
 0002:0000a2f0       $unwind$__crtGetUserDefaultLocaleName 00000001800292f0     LIBCMT:winapinls.obj
 0002:0000a2f0       $unwind$?resize@?$vector@PEAXV?$allocator@PEAX@std@@@std@@QEAAX_K@Z 00000001800292f0     coroutine.obj
 0002:0000a2f0       $unwind$_fptostr           00000001800292f0     LIBCMT:_fptostr.obj
 0002:0000a2f0       $unwind$??0?$vector@PEAVFiber@@V?$allocator@PEAVFiber@@@std@@@std@@QEAA@AEBV01@@Z 00000001800292f0     fibers.obj
 0002:0000a2f0       $unwind$_dosmaperr         00000001800292f0     LIBCMT:dosmap.obj
 0002:0000a2f0       $unwind$??0Coroutine@@AEAA@XZ 00000001800292f0     coroutine.obj
 0002:0000a2f0       $unwind$_calloc_impl       00000001800292f0     LIBCMT:calloc_impl.obj
 0002:0000a2f0       $unwind$_close_nolock      00000001800292f0     LIBCMT:close.obj
 0002:0000a2f0       $unwind$_RTC_Terminate     00000001800292f0     LIBCMT:initsect.obj
 0002:0000a2f0       $unwind$??_GFiber@@EEAAPEAXI@Z 00000001800292f0     fibers.obj
 0002:0000a2f0       $unwind$?GetFibersCreated@Fiber@@CAXV?$Local@VString@v8@@@v8@@AEBV?$PropertyCallbackInfo@VValue@v8@@@3@@Z 00000001800292f0     fibers.obj
 0002:0000a2f0       $unwind$fgetpos            00000001800292f0     LIBCMT:fgetpos.obj
 0002:0000a2f0       $unwind$??_Gbad_exception@std@@UEAAPEAXI@Z 00000001800292f0     LIBCMT:frame.obj
 0002:0000a2f0       $unwind$_getptd_noexit     00000001800292f0     LIBCMT:tidtable.obj
 0002:0000a2f0       $unwind$_updatetlocinfoEx_nolock 00000001800292f0     LIBCMT:localref.obj
 0002:0000a2f0       $unwind$??0sentry@?$basic_ostream@DU?$char_traits@D@std@@@std@@QEAA@AEAV12@@Z 00000001800292f0     fibers.obj
 0002:0000a2f0       $unwind$??_Gtype_info@@UEAAPEAXI@Z 00000001800292f0     LIBCMT:typinfo.obj
 0002:0000a2f0       $unwind$_RTC_Initialize    00000001800292f0     LIBCMT:initsect.obj
 0002:0000a2f0       $unwind$??_G?$ctype@D@std@@MEAAPEAXI@Z 00000001800292f0     libcpmt:cerr.obj
 0002:0000a2f0       $unwind$GetLcidFromLangCountry 00000001800292f0     LIBCMT:getqloc_downlevel.obj
 0002:0000a2f0       $unwind$?underflow@?$basic_filebuf@DU?$char_traits@D@std@@@std@@MEAAHXZ 00000001800292f0     libcpmt:cerr.obj
 0002:0000a2f0       $unwind$??4exception@std@@QEAAAEAV01@AEBV01@@Z 00000001800292f0     LIBCMT:stdexcpt.obj
 0002:0000a2f0       $unwind$_fclose_nolock     00000001800292f0     LIBCMT:fclose.obj
 0002:0000a2f0       $unwind$GetLcidFromLanguage 00000001800292f0     LIBCMT:getqloc_downlevel.obj
 0002:0000a2f0       $unwind$_lock              00000001800292f0     LIBCMT:mlock.obj
 0002:0000a2f0       $unwind$_ungetc_nolock     00000001800292f0     LIBCMT:ungetc.obj
 0002:0000a2f0       $unwind$??_Gbad_cast@std@@UEAAPEAXI@Z 00000001800292f0     LIBCMT:stdexcpt.obj
 0002:0000a2f0       $unwind$?_Init@ios_base@std@@IEAAXXZ 00000001800292f0     libcpmt:cerr.obj
 0002:0000a2f0       $unwind$?_Tidy@ios_base@std@@AEAAXXZ 00000001800292f0     libcpmt:ios.obj
 0002:0000a2f0       $unwind$??_Gios_base@std@@UEAAPEAXI@Z 00000001800292f0     libcpmt:cerr.obj
 0002:0000a2f0       $unwind$_FindAndUnlinkFrame 00000001800292f0     LIBCMT:trnsctrl.obj
 0002:0000a2f0       $unwind$_initp_misc_cfltcvt_tab 00000001800292f0     LIBCMT:cmiscdat.obj
 0002:0000a2f0       $unwind$__freeCrtMemory    00000001800292f0     LIBCMT:crt0dat.obj
 0002:0000a2f0       $unwind$??0?$basic_streambuf@DU?$char_traits@D@std@@@std@@IEAA@XZ 00000001800292f0     libcpmt:cerr.obj
 0002:0000a2f0       $unwind$??_Gexception@std@@UEAAPEAXI@Z 00000001800292f0     LIBCMT:stdexcpt.obj
 0002:0000a2f0       $unwind$??1_Init_locks@std@@QEAA@XZ 00000001800292f0     libcpmt:xlock.obj
 0002:0000a2f0       $unwind$??_G?$basic_ios@DU?$char_traits@D@std@@@std@@UEAAPEAXI@Z 00000001800292f0     libcpmt:cerr.obj
 0002:0000a2f0       $unwind$?pbackfail@?$basic_filebuf@DU?$char_traits@D@std@@@std@@MEAAHH@Z 00000001800292f0     libcpmt:cerr.obj
 0002:0000a2fc       $unwind$?Unwrap@Fiber@@CAAEAV1@V?$Local@VObject@v8@@@v8@@@Z 00000001800292fc     fibers.obj
 0002:0000a304       $unwind$??0Fiber@@AEAA@V?$Local@VObject@v8@@@v8@@V?$Local@VFunction@v8@@@2@V?$Local@VContext@v8@@@2@@Z 0000000180029304     fibers.obj
 0002:0000a314       $chain$0$?WeakCallback@Fiber@@CAXPEAX@Z 0000000180029314     fibers.obj
 0002:0000a328       $chain$1$?WeakCallback@Fiber@@CAXPEAX@Z 0000000180029328     fibers.obj
 0002:0000a338       $unwind$?_Xlength_error@std@@YAXPEBD@Z 0000000180029338     libcpmt:xthrow.obj
 0002:0000a338       $unwind$?DestroyOrphans@Fiber@@CAXXZ 0000000180029338     fibers.obj
 0002:0000a338       $unwind$__initconout       0000000180029338     LIBCMT:initcon.obj
 0002:0000a338       $unwind$?_Xout_of_range@std@@YAXPEBD@Z 0000000180029338     libcpmt:xthrow.obj
 0002:0000a338       $unwind$_cfltcvt           0000000180029338     LIBCMT:cvt.obj
 0002:0000a338       $unwind$?_Xbad_alloc@std@@YAXXZ 0000000180029338     libcpmt:xthrow.obj
 0002:0000a340       $chain$4$?DestroyOrphans@Fiber@@CAXXZ 0000000180029340     fibers.obj
 0002:0000a364       $chain$5$?DestroyOrphans@Fiber@@CAXXZ 0000000180029364     fibers.obj
 0002:0000a374       $chain$6$?DestroyOrphans@Fiber@@CAXXZ 0000000180029374     fibers.obj
 0002:0000a398       $unwind$?New@Fiber@@CAXAEBV?$FunctionCallbackInfo@VValue@v8@@@v8@@@Z 0000000180029398     fibers.obj
 0002:0000a3a4       $chain$0$?New@Fiber@@CAXAEBV?$FunctionCallbackInfo@VValue@v8@@@v8@@@Z 00000001800293a4     fibers.obj
 0002:0000a3b8       $chain$1$?New@Fiber@@CAXAEBV?$FunctionCallbackInfo@VValue@v8@@@v8@@@Z 00000001800293b8     fibers.obj
 0002:0000a3c8       $unwind$?ThrowInto@Fiber@@CAXAEBV?$FunctionCallbackInfo@VValue@v8@@@v8@@@Z 00000001800293c8     fibers.obj
 0002:0000a3c8       $unwind$?Reset@Fiber@@CAXAEBV?$FunctionCallbackInfo@VValue@v8@@@v8@@@Z 00000001800293c8     fibers.obj
 0002:0000a3c8       $unwind$?Run@Fiber@@CAXAEBV?$FunctionCallbackInfo@VValue@v8@@@v8@@@Z 00000001800293c8     fibers.obj
 0002:0000a3d4       $chain$0$?ThrowInto@Fiber@@CAXAEBV?$FunctionCallbackInfo@VValue@v8@@@v8@@@Z 00000001800293d4     fibers.obj
 0002:0000a3e8       $chain$4$?ThrowInto@Fiber@@CAXAEBV?$FunctionCallbackInfo@VValue@v8@@@v8@@@Z 00000001800293e8     fibers.obj
 0002:0000a3e8       $chain$2$?ThrowInto@Fiber@@CAXAEBV?$FunctionCallbackInfo@VValue@v8@@@v8@@@Z 00000001800293e8     fibers.obj
 0002:0000a3fc       $unwind$?UnwindStack@Fiber@@AEAAXXZ 00000001800293fc     fibers.obj
 0002:0000a40c       $unwind$?finish@Coroutine@@QEAAXAEAV1@@Z 000000018002940c     coroutine.obj
 0002:0000a40c       $unwind$?SwapContext@Fiber@@AEAAXXZ 000000018002940c     fibers.obj
 0002:0000a40c       $unwind$ProcessCodePage    000000018002940c     LIBCMT:getqloc.obj
 0002:0000a40c       $unwind$ProcessCodePage    000000018002940c     LIBCMT:getqloc_downlevel.obj
 0002:0000a41c       $unwind$?RunFiber@Fiber@@CAXPEAPEAX@Z 000000018002941c     fibers.obj
 0002:0000a430       $unwind$?Yield_@Fiber@@CAXAEBV?$FunctionCallbackInfo@VValue@v8@@@v8@@@Z 0000000180029430     fibers.obj
 0002:0000a43c       $chain$0$?Yield_@Fiber@@CAXAEBV?$FunctionCallbackInfo@VValue@v8@@@v8@@@Z 000000018002943c     fibers.obj
 0002:0000a450       $chain$2$?Yield_@Fiber@@CAXAEBV?$FunctionCallbackInfo@VValue@v8@@@v8@@@Z 0000000180029450     fibers.obj
 0002:0000a464       $chain$6$?Yield_@Fiber@@CAXAEBV?$FunctionCallbackInfo@VValue@v8@@@v8@@@Z 0000000180029464     fibers.obj
 0002:0000a480       $unwind$?GetPoolSize@Fiber@@CAXV?$Local@VString@v8@@@v8@@AEBV?$PropertyCallbackInfo@VValue@v8@@@3@@Z 0000000180029480     fibers.obj
 0002:0000a48c       $unwind$__FrameUnwindFilter 000000018002948c     LIBCMT:frame.obj
 0002:0000a48c       $unwind$__report_rangecheckfailure 000000018002948c     LIBCMT:gs_report.obj
 0002:0000a48c       $unwind$___lc_locale_name_func 000000018002948c     LIBCMT:initctyp.obj
 0002:0000a48c       $unwind$___lc_codepage_func 000000018002948c     LIBCMT:initctyp.obj
 0002:0000a48c       $unwind$??__Einitlocks@std@@YAXXZ 000000018002948c     libcpmt:xlock.obj
 0002:0000a48c       $unwind$_invoke_watson     000000018002948c     LIBCMT:invarg.obj
 0002:0000a48c       $unwind$_mtterm            000000018002948c     LIBCMT:tidtable.obj
 0002:0000a48c       $unwind$_copytlocinfo_nolock 000000018002948c     LIBCMT:wsetloca.obj
 0002:0000a48c       $unwind$?_Reserve@?$vector@PEAVFiber@@V?$allocator@PEAVFiber@@@std@@@std@@IEAAX_K@Z 000000018002948c     fibers.obj
 0002:0000a48c       $unwind$_set_error_mode    000000018002948c     LIBCMT:errmode.obj
 0002:0000a48c       $unwind$__pctype_func      000000018002948c     LIBCMT:ctype.obj
 0002:0000a48c       $unwind$__endstdio         000000018002948c     LIBCMT:_file.obj
 0002:0000a48c       $unwind$?_Unlock@?$basic_filebuf@DU?$char_traits@D@std@@@std@@UEAAXXZ 000000018002948c     libcpmt:cerr.obj
 0002:0000a48c       $unwind$abort              000000018002948c     LIBCMT:abort.obj
 0002:0000a48c       $unwind$?_Lock@?$basic_filebuf@DU?$char_traits@D@std@@@std@@UEAAXXZ 000000018002948c     libcpmt:cerr.obj
 0002:0000a48c       $unwind$??__Einitlocks@@YAXXZ 000000018002948c     libcpmt:cerr.obj
 0002:0000a48c       $unwind$fsetpos            000000018002948c     LIBCMT:fsetpos.obj
 0002:0000a48c       $unwind$__termconout       000000018002948c     LIBCMT:initcon.obj
 0002:0000a48c       $unwind$_wcsnicmp          000000018002948c     LIBCMT:wcsnicmp.obj
 0002:0000a48c       $unwind$??1_Lockit@std@@QEAA@XZ 000000018002948c     libcpmt:xlock.obj
 0002:0000a48c       $unwind$__initmbctable     000000018002948c     LIBCMT:mbctype.obj
 0002:0000a48c       $unwind$_purecall          000000018002948c     LIBCMT:purevirt.obj
 0002:0000a48c       $unwind$??1locale@std@@QEAA@XZ 000000018002948c     libcpmt:cerr.obj
 0002:0000a48c       $unwind$_heap_init         000000018002948c     LIBCMT:heapinit.obj
 0002:0000a48c       $unwind$__doserrno         000000018002948c     LIBCMT:dosmap.obj
 0002:0000a48c       $unwind$_initp_eh_hooks    000000018002948c     LIBCMT:hooks.obj
 0002:0000a48c       $unwind$_wcsicmp           000000018002948c     LIBCMT:wcsicmp.obj
 0002:0000a48c       $unwind$??__F?orphaned_fibers@Fiber@@0V?$vector@PEAVFiber@@V?$allocator@PEAVFiber@@@std@@@std@@A@@YAXXZ 000000018002948c     fibers.obj
 0002:0000a48c       $unwind$_errno             000000018002948c     LIBCMT:dosmap.obj
 0002:0000a48c       $unwind$??__Ecerr@std@@YAXXZ 000000018002948c     libcpmt:cerr.obj
 0002:0000a48c       $unwind$__crtDownlevelLocaleNameToLCID 000000018002948c     LIBCMT:winapinls.obj
 0002:0000a48c       $unwind$_stricmp           000000018002948c     LIBCMT:stricmp.obj
 0002:0000a48c       $unwind$_get_osfhandle     000000018002948c     LIBCMT:osfinfo.obj
 0002:0000a48c       $unwind$_msize             000000018002948c     LIBCMT:msize.obj
 0002:0000a48c       $unwind$??__Ffls_data_pool@@YAXXZ 000000018002948c     coroutine.obj
 0002:0000a48c       $unwind$??__Finit_atexit@@YAXXZ 000000018002948c     libcpmt:iosptrs.obj
 0002:0000a48c       $unwind$??__Einitlocks@std@@YAXXZ 000000018002948c     libcpmt:iosptrs.obj
 0002:0000a48c       $unwind$?_Atexit@@YAXP6AXXZ@Z 000000018002948c     libcpmt:iosptrs.obj
 0002:0000a48c       $unwind$?SetPoolSize@Fiber@@CAXV?$Local@VString@v8@@@v8@@V?$Local@VValue@v8@@@3@AEBV?$PropertyCallbackInfo@X@3@@Z 000000018002948c     fibers.obj
 0002:0000a48c       $unwind$??__Ffiber_pool@@YAXXZ 000000018002948c     coroutine.obj
 0002:0000a48c       $unwind$??8type_info@@QEBA_NAEBV0@@Z 000000018002948c     LIBCMT:typinfo.obj
 0002:0000a48c       $unwind$__crtEnumSystemLocalesEx 000000018002948c     LIBCMT:winapinls.obj
 0002:0000a48c       $unwind$?_Reserve@?$vector@PEAVCoroutine@@V?$allocator@PEAVCoroutine@@@std@@@std@@IEAAX_K@Z 000000018002948c     coroutine.obj
 0002:0000a48c       $unwind$_fileno            000000018002948c     LIBCMT:fileno.obj
 0002:0000a48c       $unwind$_isatty            000000018002948c     LIBCMT:isatty.obj
 0002:0000a48c       $unwind$__crtInitializeCriticalSectionEx 000000018002948c     LIBCMT:winapisupp.obj
 0002:0000a48c       $unwind$_FF_MSGBANNER      000000018002948c     LIBCMT:crt0msg.obj
 0002:0000a48c       $unwind$?_Reserve@?$vector@PEAXV?$allocator@PEAX@std@@@std@@IEAAX_K@Z 000000018002948c     coroutine.obj
 0002:0000a48c       $unwind$?__GetCurrentState@@YAHPEA_KPEAU_xDISPATCHER_CONTEXT@@PEBU_s_FuncInfo@@@Z 000000018002948c     LIBCMT:ehstate.obj
 0002:0000a48c       $unwind$?_Locinfo_dtor@_Locinfo@std@@SAXPEAV12@@Z 000000018002948c     libcpmt:locale0.obj
 0002:0000a48c       $unwind$??__Fclassic_locale@std@@YAXXZ 000000018002948c     libcpmt:locale0.obj
 0002:0000a48c       $unwind$tidy_global        000000018002948c     libcpmt:locale0.obj
 0002:0000a48c       $unwind$_Deletegloballocale 000000018002948c     libcpmt:locale0.obj
 0002:0000a48c       $unwind$__GSHandlerCheck   000000018002948c     LIBCMT:gshandler.obj
 0002:0000a48c       $unwind$atexit             000000018002948c     LIBCMT:onexit.obj
 0002:0000a48c       $unwind$_GetThrowImageBase 000000018002948c     LIBCMT:trnsctrl.obj
 0002:0000a48c       $unwind$__crtIsValidLocaleName 000000018002948c     LIBCMT:winapinls.obj
 0002:0000a48c       $unwind$_GetImageBase      000000018002948c     LIBCMT:trnsctrl.obj
 0002:0000a494       $unwind$?Init@Fiber@@SAXV?$Local@VObject@v8@@@v8@@@Z 0000000180029494     fibers.obj
 0002:0000a4a4       $unwind$?init@@YAXV?$Local@VObject@v8@@@v8@@@Z 00000001800294a4     fibers.obj
 0002:0000a4ac       $unwind$?append@?$basic_string@DU?$char_traits@D@std@@V?$allocator@D@2@@std@@QEAAAEAV12@AEBV12@_K1@Z 00000001800294ac     fibers.obj
 0002:0000a4c0       $chain$0$?append@?$basic_string@DU?$char_traits@D@std@@V?$allocator@D@2@@std@@QEAAAEAV12@AEBV12@_K1@Z 00000001800294c0     fibers.obj
 0002:0000a4d4       $chain$1$?append@?$basic_string@DU?$char_traits@D@std@@V?$allocator@D@2@@std@@QEAAAEAV12@AEBV12@_K1@Z 00000001800294d4     fibers.obj
 0002:0000a4e4       $chain$2$?append@?$basic_string@DU?$char_traits@D@std@@V?$allocator@D@2@@std@@QEAAAEAV12@AEBV12@_K1@Z 00000001800294e4     fibers.obj
 0002:0000a4f8       $unwind$?append@?$basic_string@DU?$char_traits@D@std@@V?$allocator@D@2@@std@@QEAAAEAV12@PEBD_K@Z 00000001800294f8     fibers.obj
 0002:0000a508       $chain$0$?append@?$basic_string@DU?$char_traits@D@std@@V?$allocator@D@2@@std@@QEAAAEAV12@PEBD_K@Z 0000000180029508     fibers.obj
 0002:0000a51c       $chain$1$?append@?$basic_string@DU?$char_traits@D@std@@V?$allocator@D@2@@std@@QEAAAEAV12@PEBD_K@Z 000000018002951c     fibers.obj
 0002:0000a52c       $chain$2$?append@?$basic_string@DU?$char_traits@D@std@@V?$allocator@D@2@@std@@QEAAAEAV12@PEBD_K@Z 000000018002952c     fibers.obj
 0002:0000a540       $unwind$_XcptFilter        0000000180029540     LIBCMT:winxfltr.obj
 0002:0000a540       $unwind$?do_toupper@?$ctype@D@std@@MEBAPEBDPEADPEBD@Z 0000000180029540     libcpmt:cerr.obj
 0002:0000a540       $unwind$_fseeki64_nolock   0000000180029540     LIBCMT:fseeki64.obj
 0002:0000a540       $unwind$xtow_s             0000000180029540     LIBCMT:xtows.obj
 0002:0000a540       $unwind$?_Copy@?$basic_string@DU?$char_traits@D@std@@V?$allocator@D@2@@std@@QEAAX_K0@Z 0000000180029540     fibers.obj
 0002:0000a540       $unwind$__freetlocinfo     0000000180029540     LIBCMT:localref.obj
 0002:0000a540       $unwind$?do_tolower@?$ctype@D@std@@MEBAPEBDPEADPEBD@Z 0000000180029540     libcpmt:cerr.obj
 0002:0000a540       $unwind$_mtdeletelocks     0000000180029540     LIBCMT:mlock.obj
 0002:0000a540       $unwind$?setSBCS@@YAXPEAUthreadmbcinfostruct@@@Z 0000000180029540     LIBCMT:mbctype.obj
 0002:0000a540       $unwind$?assign@?$basic_string@DU?$char_traits@D@std@@V?$allocator@D@2@@std@@QEAAAEAV12@AEBV12@_K1@Z 0000000180029540     fibers.obj
 0002:0000a540       $unwind$_initterm          0000000180029540     LIBCMT:crt0dat.obj
 0002:0000a540       $unwind$?__StateFromIp@@YAHPEBU_s_FuncInfo@@PEAU_xDISPATCHER_CONTEXT@@_J@Z 0000000180029540     LIBCMT:ehstate.obj
 0002:0000a540       $unwind$?append@?$basic_string@DU?$char_traits@D@std@@V?$allocator@D@2@@std@@QEAAAEAV12@_KD@Z 0000000180029540     libcpmt:cerr.obj
 0002:0000a554       $unwind$malloc             0000000180029554     LIBCMT:malloc.obj
 0002:0000a554       $unwind$_ioterm            0000000180029554     LIBCMT:ioinit.obj
 0002:0000a554       $unwind$?run@Coroutine@@QEAAXXZ 0000000180029554     coroutine.obj
 0002:0000a554       $unwind$_filbuf            0000000180029554     LIBCMT:_filbuf.obj
 0002:0000a554       $unwind$_flush             0000000180029554     LIBCMT:fflush.obj
 0002:0000a554       $unwind$_mtinitlocks       0000000180029554     LIBCMT:mlock.obj
 0002:0000a554       $unwind$_DllMainCRTStartup 0000000180029554     LIBCMT:dllcrt0.obj
 0002:0000a554       $unwind$__crtGetLocaleInfoEx 0000000180029554     LIBCMT:winapinls.obj
 0002:0000a554       $unwind$?assign@?$basic_string@DU?$char_traits@D@std@@V?$allocator@D@2@@std@@QEAAAEAV12@PEBD_K@Z 0000000180029554     fibers.obj
 0002:0000a554       $unwind$realloc            0000000180029554     LIBCMT:realloc.obj
 0002:0000a554       $unwind$??4?$_Yarn@D@std@@QEAAAEAV01@PEBD@Z 0000000180029554     libcpmt:locale0.obj
 0002:0000a554       $unwind$?transfer@Coroutine@@AEAAXAEAV1@@Z 0000000180029554     coroutine.obj
 0002:0000a554       $unwind$??_G?$basic_streambuf@DU?$char_traits@D@std@@@std@@UEAAPEAXI@Z 0000000180029554     libcpmt:cerr.obj
 0002:0000a554       $unwind$??0Coroutine@@AEAA@A6AXPEAX@Z0@Z 0000000180029554     coroutine.obj
 0002:0000a554       $unwind$??0_Init_locks@std@@QEAA@XZ 0000000180029554     libcpmt:xlock.obj
 0002:0000a554       $unwind$memcpy_s           0000000180029554     LIBCMT:memcpy_s.obj
 0002:0000a554       $unwind$_lseeki64_nolock   0000000180029554     LIBCMT:lseeki64.obj
 0002:0000a564       $unwind$?_Grow@?$basic_string@DU?$char_traits@D@std@@V?$allocator@D@2@@std@@QEAA_N_K_N@Z 0000000180029564     fibers.obj
 0002:0000a570       $chain$0$?_Grow@?$basic_string@DU?$char_traits@D@std@@V?$allocator@D@2@@std@@QEAA_N_K_N@Z 0000000180029570     fibers.obj
 0002:0000a584       $chain$1$?_Grow@?$basic_string@DU?$char_traits@D@std@@V?$allocator@D@2@@std@@QEAA_N_K_N@Z 0000000180029584     fibers.obj
 0002:0000a598       $chain$2$?_Grow@?$basic_string@DU?$char_traits@D@std@@V?$allocator@D@2@@std@@QEAA_N_K_N@Z 0000000180029598     fibers.obj
 0002:0000a5ac       $chain$3$?_Grow@?$basic_string@DU?$char_traits@D@std@@V?$allocator@D@2@@std@@QEAA_N_K_N@Z 00000001800295ac     fibers.obj
 0002:0000a5bc       $chain$4$?_Grow@?$basic_string@DU?$char_traits@D@std@@V?$allocator@D@2@@std@@QEAA_N_K_N@Z 00000001800295bc     fibers.obj
 0002:0000a5cc       $chain$5$?_Grow@?$basic_string@DU?$char_traits@D@std@@V?$allocator@D@2@@std@@QEAA_N_K_N@Z 00000001800295cc     fibers.obj
 0002:0000a5dc       $unwind$?flush@?$basic_ostream@DU?$char_traits@D@std@@@std@@QEAAAEAV12@XZ 00000001800295dc     fibers.obj
 0002:0000a5dc       $unwind$?getloc@ios_base@std@@QEBA?AVlocale@2@XZ 00000001800295dc     libcpmt:cerr.obj
 0002:0000a5dc       $unwind$_fassign_l         00000001800295dc     LIBCMT:cvt.obj
 0002:0000a5e4       $chain$0$?flush@?$basic_ostream@DU?$char_traits@D@std@@@std@@QEAAAEAV12@XZ 00000001800295e4     fibers.obj
 0002:0000a5f8       $chain$1$?flush@?$basic_ostream@DU?$char_traits@D@std@@@std@@QEAAAEAV12@XZ 00000001800295f8     fibers.obj
 0002:0000a608       $unwind$?_Reallocate@?$vector@PEAVFiber@@V?$allocator@PEAVFiber@@@std@@@std@@IEAAX_K@Z 0000000180029608     fibers.obj
 0002:0000a608       $unwind$?_Reallocate@?$vector@PEAVCoroutine@@V?$allocator@PEAVCoroutine@@@std@@@std@@IEAAX_K@Z 0000000180029608     coroutine.obj
 0002:0000a608       $unwind$?_Reallocate@?$vector@PEAXV?$allocator@PEAX@std@@@std@@IEAAX_K@Z 0000000180029608     coroutine.obj
 0002:0000a608       $unwind$?create_fiber@Coroutine@@SAPEAV1@P6AXPEAX@Z0@Z 0000000180029608     coroutine.obj
 0002:0000a614       $chain$0$?_Reallocate@?$vector@PEAVFiber@@V?$allocator@PEAVFiber@@@std@@@std@@IEAAX_K@Z 0000000180029614     fibers.obj
 0002:0000a628       $chain$1$?_Reallocate@?$vector@PEAVFiber@@V?$allocator@PEAVFiber@@@std@@@std@@IEAAX_K@Z 0000000180029628     fibers.obj
 0002:0000a638       $unwind$??$?6U?$char_traits@D@std@@@std@@YAAEAV?$basic_ostream@DU?$char_traits@D@std@@@0@AEAV10@PEBD@Z 0000000180029638     fibers.obj
 0002:0000a640       $chain$3$??$?6U?$char_traits@D@std@@@std@@YAAEAV?$basic_ostream@DU?$char_traits@D@std@@@0@AEAV10@PEBD@Z 0000000180029640     fibers.obj
 0002:0000a660       $chain$4$??$?6U?$char_traits@D@std@@@std@@YAAEAV?$basic_ostream@DU?$char_traits@D@std@@@0@AEAV10@PEBD@Z 0000000180029660     fibers.obj
 0002:0000a674       $chain$5$??$?6U?$char_traits@D@std@@@std@@YAAEAV?$basic_ostream@DU?$char_traits@D@std@@@0@AEAV10@PEBD@Z 0000000180029674     fibers.obj
 0002:0000a684       $unwind$??$Reset@VValue@v8@@@uni@@YAXPEAVIsolate@v8@@AEAV?$Persistent@VValue@v8@@V?$NonCopyablePersistentTraits@VValue@v8@@@2@@2@V?$Local@VValue@v8@@@2@@Z 0000000180029684     fibers.obj
 0002:0000a690       $unwind$?find_thread_id_key@@YAKPEAX@Z 0000000180029690     coroutine.obj
 0002:0000a698       $chain$1$?find_thread_id_key@@YAKPEAX@Z 0000000180029698     coroutine.obj
 0002:0000a6b0       $chain$2$?find_thread_id_key@@YAKPEAX@Z 00000001800296b0     coroutine.obj
 0002:0000a6c4       $chain$3$?find_thread_id_key@@YAKPEAX@Z 00000001800296c4     coroutine.obj
 0002:0000a6d4       $chain$4$?find_thread_id_key@@YAKPEAX@Z 00000001800296d4     coroutine.obj
 0002:0000a6e4       $unwind$?init@Coroutine@@SAXPEAVIsolate@v8@@@Z 00000001800296e4     coroutine.obj
 0002:0000a6f0       $chain$0$?create_fiber@Coroutine@@SAPEAV1@P6AXPEAX@Z0@Z 00000001800296f0     coroutine.obj
 0002:0000a704       $chain$1$?create_fiber@Coroutine@@SAPEAV1@P6AXPEAX@Z0@Z 0000000180029704     coroutine.obj
 0002:0000a714       $chain$0$?_Reallocate@?$vector@PEAXV?$allocator@PEAX@std@@@std@@IEAAX_K@Z 0000000180029714     coroutine.obj
 0002:0000a728       $chain$1$?_Reallocate@?$vector@PEAXV?$allocator@PEAX@std@@@std@@IEAAX_K@Z 0000000180029728     coroutine.obj
 0002:0000a738       $chain$0$?_Reallocate@?$vector@PEAVCoroutine@@V?$allocator@PEAVCoroutine@@@std@@@std@@IEAAX_K@Z 0000000180029738     coroutine.obj
 0002:0000a74c       $chain$1$?_Reallocate@?$vector@PEAVCoroutine@@V?$allocator@PEAVCoroutine@@@std@@@std@@IEAAX_K@Z 000000018002974c     coroutine.obj
 0002:0000a75c       xdata                      000000018002975c     node:node.exe
 0002:0000a764       $unwind$??0_Locinfo@std@@QEAA@PEBD@Z 0000000180029764     libcpmt:cerr.obj
 0002:0000a778       $stateUnwindMap$??0_Locinfo@std@@QEAA@PEBD@Z 0000000180029778     libcpmt:cerr.obj
 0002:0000a7b0       $ip2state$??0_Locinfo@std@@QEAA@PEBD@Z 00000001800297b0     libcpmt:cerr.obj
 0002:0000a7f8       $unwind$?_Getcat@?$ctype@D@std@@SA_KPEAPEBVfacet@locale@2@PEBV42@@Z 00000001800297f8     libcpmt:cerr.obj
 0002:0000a818       $stateUnwindMap$?_Getcat@?$ctype@D@std@@SA_KPEAPEBVfacet@locale@2@PEBV42@@Z 0000000180029818     libcpmt:cerr.obj
 0002:0000a820       $ip2state$?_Getcat@?$ctype@D@std@@SA_KPEAPEBVfacet@locale@2@PEBV42@@Z 0000000180029820     libcpmt:cerr.obj
 0002:0000a838       $unwind$??$use_facet@V?$ctype@D@std@@@std@@YAAEBV?$ctype@D@0@AEBVlocale@0@@Z 0000000180029838     libcpmt:cerr.obj
 0002:0000a850       $stateUnwindMap$??$use_facet@V?$ctype@D@std@@@std@@YAAEBV?$ctype@D@0@AEBVlocale@0@@Z 0000000180029850     libcpmt:cerr.obj
 0002:0000a850       $stateUnwindMap$??$use_facet@V?$codecvt@DDH@std@@@std@@YAAEBV?$codecvt@DDH@0@AEBVlocale@0@@Z 0000000180029850     libcpmt:cerr.obj
 0002:0000a858       $ip2state$??$use_facet@V?$ctype@D@std@@@std@@YAAEBV?$ctype@D@0@AEBVlocale@0@@Z 0000000180029858     libcpmt:cerr.obj
 0002:0000a870       $unwind$?init@?$basic_ios@DU?$char_traits@D@std@@@std@@IEAAXPEAV?$basic_streambuf@DU?$char_traits@D@std@@@2@_N@Z 0000000180029870     libcpmt:cerr.obj
 0002:0000a888       $stateUnwindMap$?init@?$basic_ios@DU?$char_traits@D@std@@@std@@IEAAXPEAV?$basic_streambuf@DU?$char_traits@D@std@@@2@_N@Z 0000000180029888     libcpmt:cerr.obj
 0002:0000a890       $ip2state$?init@?$basic_ios@DU?$char_traits@D@std@@@std@@IEAAXPEAV?$basic_streambuf@DU?$char_traits@D@std@@@2@_N@Z 0000000180029890     libcpmt:cerr.obj
 0002:0000a8a8       $unwind$?xsgetn@?$basic_streambuf@DU?$char_traits@D@std@@@std@@MEAA_JPEAD_J@Z 00000001800298a8     libcpmt:cerr.obj
 0002:0000a8c0       $unwind$??0?$basic_ostream@DU?$char_traits@D@std@@@std@@QEAA@PEAV?$basic_streambuf@DU?$char_traits@D@std@@@1@_N@Z 00000001800298c0     libcpmt:cerr.obj
 0002:0000a8d0       $stateUnwindMap$??0?$basic_ostream@DU?$char_traits@D@std@@@std@@QEAA@PEAV?$basic_streambuf@DU?$char_traits@D@std@@@1@_N@Z 00000001800298d0     libcpmt:cerr.obj
 0002:0000a8d8       $ip2state$??0?$basic_ostream@DU?$char_traits@D@std@@@std@@QEAA@PEAV?$basic_streambuf@DU?$char_traits@D@std@@@1@_N@Z 00000001800298d8     libcpmt:cerr.obj
 0002:0000a8f0       $unwind$?overflow@?$basic_filebuf@DU?$char_traits@D@std@@@std@@MEAAHH@Z 00000001800298f0     libcpmt:cerr.obj
 0002:0000a918       $ip2state$?overflow@?$basic_filebuf@DU?$char_traits@D@std@@@std@@MEAAHH@Z 0000000180029918     libcpmt:cerr.obj
 0002:0000a930       $unwind$?uflow@?$basic_filebuf@DU?$char_traits@D@std@@@std@@MEAAHXZ 0000000180029930     libcpmt:cerr.obj
 0002:0000a954       $stateUnwindMap$?uflow@?$basic_filebuf@DU?$char_traits@D@std@@@std@@MEAAHXZ 0000000180029954     libcpmt:cerr.obj
 0002:0000a954       $stateUnwindMap$?overflow@?$basic_filebuf@DU?$char_traits@D@std@@@std@@MEAAHH@Z 0000000180029954     libcpmt:cerr.obj
 0002:0000a95c       $ip2state$?uflow@?$basic_filebuf@DU?$char_traits@D@std@@@std@@MEAAHXZ 000000018002995c     libcpmt:cerr.obj
 0002:0000a974       $unwind$?seekoff@?$basic_filebuf@DU?$char_traits@D@std@@@std@@MEAA?AV?$fpos@H@2@_JHH@Z 0000000180029974     libcpmt:cerr.obj
 0002:0000a988       $unwind$?seekpos@?$basic_filebuf@DU?$char_traits@D@std@@@std@@MEAA?AV?$fpos@H@2@V32@H@Z 0000000180029988     libcpmt:cerr.obj
 0002:0000a99c       $unwind$?_Endwrite@?$basic_filebuf@DU?$char_traits@D@std@@@std@@IEAA_NXZ 000000018002999c     libcpmt:cerr.obj
 0002:0000a9c0       $stateUnwindMap$?_Endwrite@?$basic_filebuf@DU?$char_traits@D@std@@@std@@IEAA_NXZ 00000001800299c0     libcpmt:cerr.obj
 0002:0000a9c8       $ip2state$?_Endwrite@?$basic_filebuf@DU?$char_traits@D@std@@@std@@IEAA_NXZ 00000001800299c8     libcpmt:cerr.obj
 0002:0000a9e0       $unwind$?_Getcat@?$codecvt@DDH@std@@SA_KPEAPEBVfacet@locale@2@PEBV42@@Z 00000001800299e0     libcpmt:cerr.obj
 0002:0000aa00       $stateUnwindMap$?_Getcat@?$codecvt@DDH@std@@SA_KPEAPEBVfacet@locale@2@PEBV42@@Z 0000000180029a00     libcpmt:cerr.obj
 0002:0000aa08       $ip2state$?_Getcat@?$codecvt@DDH@std@@SA_KPEAPEBVfacet@locale@2@PEBV42@@Z 0000000180029a08     libcpmt:cerr.obj
 0002:0000aa20       $unwind$??$use_facet@V?$codecvt@DDH@std@@@std@@YAAEBV?$codecvt@DDH@0@AEBVlocale@0@@Z 0000000180029a20     libcpmt:cerr.obj
 0002:0000aa38       $ip2state$??$use_facet@V?$codecvt@DDH@std@@@std@@YAAEBV?$codecvt@DDH@0@AEBVlocale@0@@Z 0000000180029a38     libcpmt:cerr.obj
 0002:0000aa50       $unwind$_Tolower           0000000180029a50     libcpmt:_tolower.obj
 0002:0000aa60       $unwind$_Toupper           0000000180029a60     libcpmt:_toupper.obj
 0002:0000aa74       $unwind$?_Locimp_dtor@_Locimp@locale@std@@CAXPEAV123@@Z 0000000180029a74     libcpmt:locale0.obj
 0002:0000aa88       $ip2state$?_Locimp_dtor@_Locimp@locale@std@@CAXPEAV123@@Z 0000000180029a88     libcpmt:locale0.obj
 0002:0000aaa0       $unwind$?_Init@locale@std@@CAPEAV_Locimp@12@_N@Z 0000000180029aa0     libcpmt:locale0.obj
 0002:0000aab4       $stateUnwindMap$?_Locimp_dtor@_Locimp@locale@std@@CAXPEAV123@@Z 0000000180029ab4     libcpmt:locale0.obj
 0002:0000aab4       $stateUnwindMap$?_Init@locale@std@@CAPEAV_Locimp@12@_N@Z 0000000180029ab4     libcpmt:locale0.obj
 0002:0000aabc       $ip2state$?_Init@locale@std@@CAPEAV_Locimp@12@_N@Z 0000000180029abc     libcpmt:locale0.obj
 0002:0000aad8       $xdatasym                  0000000180029ad8     LIBCMT:amdsecgs.obj
 0002:0000aadc       $unwind$_call_reportfault  0000000180029adc     LIBCMT:invarg.obj
 0002:0000ab00       $xdatasym                  0000000180029b00     LIBCMT:memcpy.obj
 0002:0000ab04       $unwind$swprintf           0000000180029b04     LIBCMT:wassert.obj
 0002:0000ab0c       $unwind$_wassert           0000000180029b0c     LIBCMT:wassert.obj
 0002:0000ab30       $unwind$_onexit            0000000180029b30     LIBCMT:onexit.obj
 0002:0000ab60       $unwind$doexit             0000000180029b60     LIBCMT:crt0dat.obj
 0002:0000ab90       $unwind$_CRT_INIT          0000000180029b90     LIBCMT:dllcrt0.obj
 0002:0000abb0       $unwind$__DllMainCRTStartup 0000000180029bb0     LIBCMT:dllcrt0.obj
 0002:0000abd8       $xdatasym                  0000000180029bd8     LIBCMT:strlen.obj
 0002:0000abdc       $unwind$_CxxThrowException 0000000180029bdc     LIBCMT:throw.obj
 0002:0000abec       $unwind$?__FrameUnwindToEmptyState@@YAXPEA_KPEAU_xDISPATCHER_CONTEXT@@PEBU_s_FuncInfo@@@Z 0000000180029bec     LIBCMT:trnsctrl.obj
 0002:0000ac00       $unwind$_UnwindNestedFrames 0000000180029c00     LIBCMT:trnsctrl.obj
 0002:0000ac14       $unwind$_CallSETranslator  0000000180029c14     LIBCMT:trnsctrl.obj
 0002:0000ac34       $unwind$_CallSETranslator$filt$0 0000000180029c34     LIBCMT:trnsctrl.obj
 0002:0000ac3c       $unwind$TranslateName      0000000180029c3c     LIBCMT:trnsctrl.obj
 0002:0000ac3c       $unwind$parse_cmdline      0000000180029c3c     LIBCMT:trnsctrl.obj
 0002:0000ac3c       $unwind$TranslateName      0000000180029c3c     LIBCMT:trnsctrl.obj
 0002:0000ac3c       $unwind$?_GetRangeOfTrysToCheck@@YAPEBU_s_TryBlockMapEntry@@PEA_KPEBU_s_FuncInfo@@HHPEAI2PEAU_xDISPATCHER_CONTEXT@@@Z 0000000180029c3c     LIBCMT:trnsctrl.obj
 0002:0000ac58       $unwind$?_GetEstablisherFrame@@YAPEA_KPEA_KPEAU_xDISPATCHER_CONTEXT@@PEBU_s_FuncInfo@@0@Z 0000000180029c58     LIBCMT:trnsctrl.obj
 0002:0000ac70       $unwind$__CxxFrameHandler3 0000000180029c70     LIBCMT:trnsctrl.obj
 0002:0000ac80       $unwind$?__SehTransFilter@@YAHPEAU_EXCEPTION_POINTERS@@PEAUEHExceptionRecord@@PEA_KPEAU_CONTEXT@@PEAU_xDISPATCHER_CONTEXT@@PEBU_s_FuncInfo@@PEAH@Z 0000000180029c80     LIBCMT:trnsctrl.obj
 0002:0000ac80       $unwind$_wcsicmp_l         0000000180029c80     LIBCMT:trnsctrl.obj
 0002:0000ac94       $unwind$?_Copy_str@exception@std@@AEAAXPEBD@Z 0000000180029c94     LIBCMT:stdexcpt.obj
 0002:0000aca4       $unwind$fclose             0000000180029ca4     LIBCMT:fclose.obj
 0002:0000acc8       $unwind$fflush             0000000180029cc8     LIBCMT:fflush.obj
 0002:0000acec       $unwind$flsall             0000000180029cec     LIBCMT:fflush.obj
 0002:0000ad2c       $unwind$_wsetlocale$fin$0  0000000180029d2c     LIBCMT:fflush.obj
 0002:0000ad2c       $unwind$raise$fin$0        0000000180029d2c     LIBCMT:fflush.obj
 0002:0000ad2c       $unwind$_write$fin$0       0000000180029d2c     LIBCMT:fflush.obj
 0002:0000ad2c       $unwind$_wsetlocale$fin$2  0000000180029d2c     LIBCMT:fflush.obj
 0002:0000ad2c       $unwind$fclose$fin$0       0000000180029d2c     LIBCMT:fflush.obj
 0002:0000ad2c       $unwind$_initptd$fin$0     0000000180029d2c     LIBCMT:fflush.obj
 0002:0000ad2c       $unwind$_read$fin$0        0000000180029d2c     LIBCMT:fflush.obj
 0002:0000ad2c       $unwind$_wsetlocale$fin$1  0000000180029d2c     LIBCMT:fflush.obj
 0002:0000ad2c       $unwind$_initptd$fin$1     0000000180029d2c     LIBCMT:fflush.obj
 0002:0000ad2c       $unwind$__updatetlocinfo$fin$0 0000000180029d2c     LIBCMT:fflush.obj
 0002:0000ad2c       $unwind$doexit$fin$0       0000000180029d2c     LIBCMT:fflush.obj
 0002:0000ad2c       $unwind$_ftelli64$fin$0    0000000180029d2c     LIBCMT:fflush.obj
 0002:0000ad2c       $unwind$setvbuf$fin$0      0000000180029d2c     LIBCMT:fflush.obj
 0002:0000ad2c       $unwind$_fseeki64$fin$0    0000000180029d2c     LIBCMT:fflush.obj
 0002:0000ad2c       $unwind$fputc$fin$0        0000000180029d2c     LIBCMT:fflush.obj
 0002:0000ad2c       $unwind$_locterm$fin$0     0000000180029d2c     LIBCMT:fflush.obj
 0002:0000ad2c       $unwind$_freefls$fin$1     0000000180029d2c     LIBCMT:fflush.obj
 0002:0000ad2c       $unwind$?fin$0@?0??_Type_info_dtor@type_info@@CAXPEAV1@@Z@4HA 0000000180029d2c     LIBCMT:fflush.obj
 0002:0000ad2c       $unwind$__lock_fhandle$fin$0 0000000180029d2c     LIBCMT:fflush.obj
 0002:0000ad2c       $unwind$_IsNonwritableInCurrentImage$filt$0 0000000180029d2c     LIBCMT:fflush.obj
 0002:0000ad2c       $unwind$_setmbcp$fin$0     0000000180029d2c     LIBCMT:fflush.obj
 0002:0000ad2c       $unwind$_mtinitlocknum$fin$0 0000000180029d2c     LIBCMT:fflush.obj
 0002:0000ad2c       $unwind$fwrite$fin$0       0000000180029d2c     LIBCMT:fflush.obj
 0002:0000ad2c       $unwind$_lseeki64$fin$0    0000000180029d2c     LIBCMT:fflush.obj
 0002:0000ad2c       $unwind$__DestructExceptionObject$filt$0 0000000180029d2c     LIBCMT:fflush.obj
 0002:0000ad2c       $unwind$?dtor$0@?0???0?$basic_ostream@DU?$char_traits@D@std@@@std@@QEAA@PEAV?$basic_streambuf@DU?$char_traits@D@std@@@1@_N@Z@4HA 0000000180029d2c     LIBCMT:fflush.obj
 0002:0000ad2c       $unwind$flsall$fin$1       0000000180029d2c     LIBCMT:fflush.obj
 0002:0000ad2c       $unwind$flsall$fin$0       0000000180029d2c     LIBCMT:fflush.obj
 0002:0000ad2c       $unwind$ungetc$fin$0       0000000180029d2c     LIBCMT:fflush.obj
 0002:0000ad2c       $unwind$_onexit$fin$0      0000000180029d2c     LIBCMT:fflush.obj
 0002:0000ad2c       $unwind$__FrameUnwindToState$fin$1 0000000180029d2c     LIBCMT:fflush.obj
 0002:0000ad2c       $unwind$_close$fin$0       0000000180029d2c     LIBCMT:fflush.obj
 0002:0000ad2c       $unwind$__FrameUnwindToState$filt$0 0000000180029d2c     LIBCMT:fflush.obj
 0002:0000ad2c       $unwind$fflush$fin$0       0000000180029d2c     LIBCMT:fflush.obj
 0002:0000ad2c       $unwind$fwprintf$fin$0     0000000180029d2c     LIBCMT:fflush.obj
 0002:0000ad2c       $unwind$_freefls$fin$0     0000000180029d2c     LIBCMT:fflush.obj
 0002:0000ad2c       $unwind$_fcloseall$fin$0   0000000180029d2c     LIBCMT:fflush.obj
 0002:0000ad2c       $unwind$__DllMainCRTStartup$filt$0 0000000180029d2c     LIBCMT:fflush.obj
 0002:0000ad2c       $unwind$_commit$fin$0      0000000180029d2c     LIBCMT:fflush.obj
 0002:0000ad2c       $unwind$__updatetmbcinfo$fin$0 0000000180029d2c     LIBCMT:fflush.obj
 0002:0000ad2c       $unwind$_CRT_INIT$fin$0    0000000180029d2c     LIBCMT:fflush.obj
 0002:0000ad2c       $unwind$fgetc$fin$0        0000000180029d2c     LIBCMT:fflush.obj
 0002:0000ad2c       $unwind$__CxxCallCatchBlock$filt$0 0000000180029d2c     LIBCMT:fflush.obj
 0002:0000ad2c       $unwind$_ioinit$fin$0      0000000180029d2c     LIBCMT:fflush.obj
 0002:0000ad34       $unwind$fgetc              0000000180029d34     LIBCMT:fgetc.obj
 0002:0000ad58       $unwind$fputc              0000000180029d58     LIBCMT:fputc.obj
 0002:0000ad80       $unwind$_fseeki64          0000000180029d80     LIBCMT:fseeki64.obj
 0002:0000ada8       $unwind$fwrite             0000000180029da8     LIBCMT:fwrite.obj
 0002:0000add4       $unwind$_fwrite_nolock     0000000180029dd4     LIBCMT:fwrite.obj
 0002:0000adf0       $unwind$setvbuf            0000000180029df0     LIBCMT:setvbuf.obj
 0002:0000ae1c       $unwind$ungetc             0000000180029e1c     LIBCMT:ungetc.obj
 0002:0000ae40       $unwind$??0bad_cast@std@@QEAA@PEBD@Z 0000000180029e40     LIBCMT:free.obj
 0002:0000ae40       $unwind$__free_lconv_num   0000000180029e40     LIBCMT:free.obj
 0002:0000ae40       $unwind$iswctype           0000000180029e40     LIBCMT:free.obj
 0002:0000ae40       $unwind$free               0000000180029e40     LIBCMT:free.obj
 0002:0000ae48       $xdatasym                  0000000180029e48     LIBCMT:memset.obj
 0002:0000ae4c       $unwind$_mtinitlocknum     0000000180029e4c     LIBCMT:mlock.obj
 0002:0000ae74       $unwind$_wcsdup            0000000180029e74     LIBCMT:wcsdup.obj
 0002:0000ae74       $unwind$__crtLCMapStringW  0000000180029e74     LIBCMT:wcsdup.obj
 0002:0000ae74       $unwind$__copy_locale_name 0000000180029e74     LIBCMT:wcsdup.obj
 0002:0000ae84       $unwind$__init_ctype       0000000180029e84     LIBCMT:initctyp.obj
 0002:0000aeac       $unwind$__crtLCMapStringA  0000000180029eac     LIBCMT:a_map.obj
 0002:0000aebc       $unwind$?__crtLCMapStringA_stat@@YAHPEAUlocaleinfo_struct@@PEB_WKPEBDHPEADHHH@Z 0000000180029ebc     LIBCMT:a_map.obj
 0002:0000aee4       $unwind$_malloc_crt        0000000180029ee4     LIBCMT:crtheap.obj
 0002:0000aee4       $unwind$__GSHandlerCheck_EH 0000000180029ee4     LIBCMT:crtheap.obj
 0002:0000aee4       $unwind$__TypeMatch        0000000180029ee4     LIBCMT:crtheap.obj
 0002:0000aee4       $unwind$GetTableIndexFromLocaleName 0000000180029ee4     LIBCMT:crtheap.obj
 0002:0000aee4       $unwind$_realloc_crt       0000000180029ee4     LIBCMT:crtheap.obj
 0002:0000aee4       $unwind$?xsputn@?$basic_streambuf@DU?$char_traits@D@std@@@std@@MEAA_JPEBD_J@Z 0000000180029ee4     LIBCMT:crtheap.obj
 0002:0000aee4       $unwind$_calloc_crt        0000000180029ee4     LIBCMT:crtheap.obj
 0002:0000aefc       $unwind$setlocale          0000000180029efc     LIBCMT:setlocal.obj
 0002:0000af2c       $unwind$setlocale$fin$0    0000000180029f2c     LIBCMT:setlocal.obj
 0002:0000af34       $unwind$__crtCaptureCurrentContext 0000000180029f34     LIBCMT:winapisupp.obj
 0002:0000af40       $unwind$__crtCapturePreviousContext 0000000180029f40     LIBCMT:winapisupp.obj
 0002:0000af50       $xdatasym                  0000000180029f50     LIBCMT:strcmp.obj
 0002:0000af54       $unwind$?x_ismbbtype_l@@YAHPEAUlocaleinfo_struct@@IHH@Z 0000000180029f54     LIBCMT:ismbbyte.obj
 0002:0000af54       $unwind$_stricmp_l         0000000180029f54     LIBCMT:ismbbyte.obj
 0002:0000af64       $unwind$_tolower_l         0000000180029f64     LIBCMT:tolower.obj
 0002:0000af78       $xdatasym                  0000000180029f78     LIBCMT:memcmp.obj
 0002:0000af7c       $unwind$__crtLCMapStringEx 0000000180029f7c     LIBCMT:winapinls.obj
 0002:0000af8c       $unwind$__report_securityfailure 0000000180029f8c     LIBCMT:gs_report.obj
 0002:0000af94       $unwind$__isa_available_init 0000000180029f94     LIBCMT:cpu_disp.obj
 0002:0000afa8       $unwind$fwprintf           0000000180029fa8     LIBCMT:fwprintf.obj
 0002:0000afcc       $unwind$_vswprintf_helper  0000000180029fcc     LIBCMT:vswprnc.obj
 0002:0000afe4       $unwind$raise              0000000180029fe4     LIBCMT:winsig.obj
 0002:0000b014       $unwind$__crtMessageBoxW   000000018002a014     LIBCMT:crtmboxw.obj
 0002:0000b030       $unwind$_NMSG_WRITE        000000018002a030     LIBCMT:crt0msg.obj
 0002:0000b054       $unwind$__getlocaleinfo    000000018002a054     LIBCMT:inithelp.obj
 0002:0000b074       $unwind$_IsNonwritableInCurrentImage 000000018002a074     LIBCMT:pesect.obj
 0002:0000b098       $unwind$?terminate@@YAXXZ  000000018002a098     LIBCMT:hooks.obj
 0002:0000b0b8       $unwind$?_inconsistency@@YAXXZ 000000018002a0b8     LIBCMT:hooks.obj
 0002:0000b0d8       $unwind$__updatetmbcinfo   000000018002a0d8     LIBCMT:mbctype.obj
 0002:0000b0fc       $unwind$_setmbcp           000000018002a0fc     LIBCMT:mbctype.obj
 0002:0000b12c       $unwind$_setmbcp_nolock    000000018002a12c     LIBCMT:mbctype.obj
 0002:0000b14c       $unwind$?setSBUpLow@@YAXPEAUthreadmbcinfostruct@@@Z 000000018002a14c     LIBCMT:mbctype.obj
 0002:0000b168       $unwind$_stbuf             000000018002a168     LIBCMT:_sftbuf.obj
 0002:0000b168       $unwind$_free_osfhnd       000000018002a168     LIBCMT:_sftbuf.obj
 0002:0000b178       $unwind$_ftbuf             000000018002a178     LIBCMT:_sftbuf.obj
 0002:0000b180       $unwind$__updatetlocinfo   000000018002a180     LIBCMT:localref.obj
 0002:0000b1a0       $unwind$_freefls           000000018002a1a0     LIBCMT:tidtable.obj
 0002:0000b1d4       $unwind$_initptd           000000018002a1d4     LIBCMT:tidtable.obj
 0002:0000b208       $unwind$_wsetlocale        000000018002a208     LIBCMT:wsetloca.obj
 0002:0000b258       $unwind$_locterm           000000018002a258     LIBCMT:wsetloca.obj
 0002:0000b278       $unwind$_expandlocale      000000018002a278     LIBCMT:wsetloca.obj
 0002:0000b298       $unwind$_wcscats           000000018002a298     LIBCMT:wsetloca.obj
 0002:0000b2a8       $unwind$_invalid_parameter 000000018002a2a8     LIBCMT:wsetloca.obj
 0002:0000b2a8       $unwind$_setenvp           000000018002a2a8     LIBCMT:wsetloca.obj
 0002:0000b2a8       $unwind$__lc_lctowcs       000000018002a2a8     LIBCMT:wsetloca.obj
 0002:0000b2a8       $unwind$__crtDownlevelLCIDToLocaleName 000000018002a2a8     LIBCMT:wsetloca.obj
 0002:0000b2bc       $unwind$__lc_wcstolc       000000018002a2bc     LIBCMT:wsetloca.obj
 0002:0000b2d4       $unwind$_wsetlocale_set_cat 000000018002a2d4     LIBCMT:wsetloca.obj
 0002:0000b2f8       $unwind$_wsetlocale_get_all 000000018002a2f8     LIBCMT:wsetloca.obj
 0002:0000b314       $unwind$_wsetlocale_nolock 000000018002a314     LIBCMT:wsetloca.obj
 0002:0000b338       $unwind$_ioinit            000000018002a338     LIBCMT:ioinit.obj
 0002:0000b380       $unwind$_setargv           000000018002a380     LIBCMT:stdargv.obj
 0002:0000b390       $unwind$__security_init_cookie 000000018002a390     LIBCMT:gs_support.obj
 0002:0000b39c       $unwind$__crtGetEnvironmentStringsA 000000018002a39c     LIBCMT:a_env.obj
 0002:0000b39c       $unwind$_cftof2_l          000000018002a39c     LIBCMT:a_env.obj
 0002:0000b39c       $unwind$_wcsnicmp_l        000000018002a39c     LIBCMT:a_env.obj
 0002:0000b3b4       $unwind$__CxxCallCatchBlock 000000018002a3b4     LIBCMT:frame.obj
 0002:0000b3f4       $unwind$__CxxCallCatchBlock$fin$1 000000018002a3f4     LIBCMT:frame.obj
 0002:0000b400       $unwind$__FrameUnwindToState 000000018002a400     LIBCMT:frame.obj
 0002:0000b43c       $unwind$?FindHandler@@YAXPEAUEHExceptionRecord@@PEA_KPEAU_CONTEXT@@PEAU_xDISPATCHER_CONTEXT@@PEBU_s_FuncInfo@@EH1@Z 000000018002a43c     LIBCMT:frame.obj
 0002:0000b458       $unwind$?CatchIt@@YAXPEAUEHExceptionRecord@@PEA_KPEAU_CONTEXT@@PEAU_xDISPATCHER_CONTEXT@@PEBU_s_FuncInfo@@PEBU_s_HandlerType@@PEBU_s_CatchableType@@PEBU_s_TryBlockMapEntry@@H1EE@Z 000000018002a458     LIBCMT:frame.obj
 0002:0000b470       $unwind$__BuildCatchObject 000000018002a470     LIBCMT:frame.obj
 0002:0000b49c       $unwind$?FindHandlerForForeignException@@YAXPEAUEHExceptionRecord@@PEA_KPEAU_CONTEXT@@PEAU_xDISPATCHER_CONTEXT@@PEBU_s_FuncInfo@@HH1@Z 000000018002a49c     LIBCMT:frame.obj
 0002:0000b4b4       $unwind$__DestructExceptionObject 000000018002a4b4     LIBCMT:frame.obj
 0002:0000b4d4       $unwind$?IsInExceptionSpec@@YAEPEAUEHExceptionRecord@@PEBU_s_ESTypeList@@@Z 000000018002a4d4     LIBCMT:frame.obj
 0002:0000b4f0       $unwind$__InternalCxxFrameHandler 000000018002a4f0     LIBCMT:frame.obj
 0002:0000b508       $unwind$__BuildCatchObjectHelper 000000018002a508     LIBCMT:frame.obj
 0002:0000b538       $unwind$?_Type_info_dtor@type_info@@CAXPEAV1@@Z 000000018002a538     LIBCMT:typname.obj
 0002:0000b558       $unwind$isupper            000000018002a558     LIBCMT:cvt.obj
 0002:0000b558       $unwind$?getSystemCP@@YAHH@Z 000000018002a558     LIBCMT:cvt.obj
 0002:0000b558       $unwind$_cropzeros_l       000000018002a558     LIBCMT:cvt.obj
 0002:0000b558       $unwind$isdigit            000000018002a558     LIBCMT:cvt.obj
 0002:0000b558       $unwind$_forcdecpt_l       000000018002a558     LIBCMT:cvt.obj
 0002:0000b558       $unwind$isleadbyte         000000018002a558     LIBCMT:cvt.obj
 0002:0000b558       $unwind$islower            000000018002a558     LIBCMT:cvt.obj
 0002:0000b558       $unwind$??2@YAPEAX_K@Z     000000018002a558     LIBCMT:cvt.obj
 0002:0000b558       $unwind$_isleadbyte_l      000000018002a558     LIBCMT:cvt.obj
 0002:0000b560       $unwind$_cftoe2_l          000000018002a560     LIBCMT:cvt.obj
 0002:0000b57c       $unwind$_cftoe_l           000000018002a57c     LIBCMT:cvt.obj
 0002:0000b594       $unwind$_cftoa_l           000000018002a594     LIBCMT:cvt.obj
 0002:0000b5b0       $unwind$_cftof_l           000000018002a5b0     LIBCMT:cvt.obj
 0002:0000b5c8       $unwind$_cftog_l           000000018002a5c8     LIBCMT:cvt.obj
 0002:0000b5e0       $unwind$_fcloseall         000000018002a5e0     LIBCMT:closeall.obj
 0002:0000b608       $unwind$_close             000000018002a608     LIBCMT:close.obj
 0002:0000b630       $unwind$_commit            000000018002a630     LIBCMT:commit.obj
 0002:0000b658       $unwind$_write             000000018002a658     LIBCMT:write.obj
 0002:0000b684       $unwind$_write_nolock      000000018002a684     LIBCMT:write.obj
 0002:0000b6a8       $unwind$_ftelli64          000000018002a6a8     LIBCMT:ftelli64.obj
 0002:0000b6cc       $unwind$_ftelli64_nolock   000000018002a6cc     LIBCMT:ftelli64.obj
 0002:0000b6f4       $unwind$_flsbuf            000000018002a6f4     LIBCMT:_flsbuf.obj
 0002:0000b708       $unwind$_lseeki64          000000018002a708     LIBCMT:lseeki64.obj
 0002:0000b734       $unwind$_isctype_l         000000018002a734     LIBCMT:isctype.obj
 0002:0000b744       $unwind$__crtGetStringTypeA 000000018002a744     LIBCMT:a_str.obj
 0002:0000b754       $unwind$?__crtGetStringTypeA_stat@@YAHPEAUlocaleinfo_struct@@KPEBDHPEAGHH@Z 000000018002a754     LIBCMT:a_str.obj
 0002:0000b780       $xdatasym                  000000018002a780     LIBCMT:chkstk.obj
 0002:0000b788       $unwind$_mbstowcs_s_l      000000018002a788     LIBCMT:mbstowcs.obj
 0002:0000b7a0       $unwind$_mbstowcs_l_helper 000000018002a7a0     LIBCMT:mbstowcs.obj
 0002:0000b7bc       $unwind$_wcstombs_s_l      000000018002a7bc     LIBCMT:wcstombs.obj
 0002:0000b7d0       $unwind$_wcstombs_l_helper 000000018002a7d0     LIBCMT:wcstombs.obj
 0002:0000b7f0       $unwind$_woutput_l         000000018002a7f0     LIBCMT:woutput.obj
 0002:0000b814       $unwind$write_multi_char   000000018002a814     LIBCMT:woutput.obj
 0002:0000b828       $unwind$write_string       000000018002a828     LIBCMT:woutput.obj
 0002:0000b840       $xdatasym                  000000018002a840     LIBCMT:jmpuwind.obj
 0002:0000b854       $unwind$__crtGetLocaleInfoA 000000018002a854     LIBCMT:a_loc.obj
 0002:0000b864       $unwind$?__crtGetLocaleInfoA_stat@@YAHPEAUlocaleinfo_struct@@PEB_WKPEADH@Z 000000018002a864     LIBCMT:a_loc.obj
 0002:0000b890       $xdatasym                  000000018002a890     LIBCMT:fpsr.obj
 0002:0000b898       $unwind$__init_monetary    000000018002a898     LIBCMT:initmon.obj
 0002:0000b8b4       $unwind$__C_specific_handler 000000018002a8b4     LIBCMT:initnum.obj
 0002:0000b8b4       $unwind$__init_numeric     000000018002a8b4     LIBCMT:initnum.obj
 0002:0000b8d0       $unwind$__init_time        000000018002a8d0     LIBCMT:inittime.obj
 0002:0000b8e0       $unwind$_get_lc_time       000000018002a8e0     LIBCMT:inittime.obj
 0002:0000b8f8       $unwind$__free_lconv_mon   000000018002a8f8     LIBCMT:inittime.obj
 0002:0000b8f8       $unwind$__free_lc_time     000000018002a8f8     LIBCMT:inittime.obj
 0002:0000b900       $unwind$__get_qualified_locale 000000018002a900     LIBCMT:getqloc.obj
 0002:0000b920       $unwind$LangCountryEnumProcEx 000000018002a920     LIBCMT:getqloc.obj
 0002:0000b940       $unwind$LanguageEnumProcEx 000000018002a940     LIBCMT:getqloc.obj
 0002:0000b958       $unwind$TestDefaultCountry 000000018002a958     LIBCMT:getqloc.obj
 0002:0000b96c       $unwind$__get_qualified_locale_downlevel 000000018002a96c     LIBCMT:getqloc_downlevel.obj
 0002:0000b988       $unwind$LangCountryEnumProc 000000018002a988     LIBCMT:getqloc_downlevel.obj
 0002:0000b9a8       $unwind$LanguageEnumProc   000000018002a9a8     LIBCMT:getqloc_downlevel.obj
 0002:0000b9c4       $unwind$CountryEnumProc    000000018002a9c4     LIBCMT:getqloc_downlevel.obj
 0002:0000b9e4       $unwind$TestDefaultLanguage 000000018002a9e4     LIBCMT:getqloc_downlevel.obj
 0002:0000b9f8       $xdatasym                  000000018002a9f8     LIBCMT:handlers.obj
 0002:0000ba00       $unwind$wcschr             000000018002aa00     LIBCMT:strrchr.obj
 0002:0000ba00       $unwind$strrchr            000000018002aa00     LIBCMT:strrchr.obj
 0002:0000ba08       $unwind$_atodbl_l          000000018002aa08     LIBCMT:atodbl.obj
 0002:0000ba1c       $unwind$__crt_atoflt_l     000000018002aa1c     LIBCMT:atodbl.obj
 0002:0000ba30       $unwind$_fltout2           000000018002aa30     LIBCMT:cfout.obj
 0002:0000ba48       $unwind$__dtold            000000018002aa48     LIBCMT:cfout.obj
 0002:0000ba50       $unwind$__lock_fhandle     000000018002aa50     LIBCMT:osfinfo.obj
 0002:0000ba7c       $unwind$_mbtowc_l          000000018002aa7c     LIBCMT:mbtowc.obj
 0002:0000ba94       $unwind$__report_gsfailure 000000018002aa94     LIBCMT:putwch.obj
 0002:0000ba94       $unwind$_putwch_nolock     000000018002aa94     LIBCMT:putwch.obj
 0002:0000ba9c       $unwind$_read              000000018002aa9c     LIBCMT:read.obj
 0002:0000bacc       $unwind$_read_nolock       000000018002aacc     LIBCMT:read.obj
 0002:0000bae4       $unwind$_itow_s            000000018002aae4     LIBCMT:wctomb.obj
 0002:0000bae4       $unwind$mbstowcs_s         000000018002aae4     LIBCMT:wctomb.obj
 0002:0000bae4       $unwind$_vswprintf_c_l     000000018002aae4     LIBCMT:wctomb.obj
 0002:0000bae4       $unwind$_invalid_parameter_noinfo 000000018002aae4     LIBCMT:wctomb.obj
 0002:0000bae4       $unwind$_cfltcvt_l         000000018002aae4     LIBCMT:wctomb.obj
 0002:0000bae4       $unwind$wctomb_s           000000018002aae4     LIBCMT:wctomb.obj
 0002:0000baec       $unwind$_wctomb_s_l        000000018002aaec     LIBCMT:wctomb.obj
 0002:0000bafc       $unwind$_towlower_l        000000018002aafc     LIBCMT:towlower.obj
 0002:0000bb08       $unwind$_fputwc_nolock     000000018002ab08     LIBCMT:fputwc.obj
 0002:0000bb24       $unwind$?wcstoxl@@YAKPEB_WPEAPEB_WHH@Z 000000018002ab24     LIBCMT:wcstol.obj
 0002:0000bb3c       $unwind$_ld12tof           000000018002ab3c     LIBCMT:intrncvt.obj
 0002:0000bb3c       $unwind$_ld12tod           000000018002ab3c     LIBCMT:intrncvt.obj
 0002:0000bb60       $unwind$__strgtold12_l     000000018002ab60     LIBCMT:strgtold.obj
 0002:0000bb84       $unwind$$I10_OUTPUT        000000018002ab84     LIBCMT:x10fout.obj
 0002:0000bba8       $unwind$_flswbuf           000000018002aba8     LIBCMT:_flswbuf.obj
 0002:0000bbbc       $unwind$__mtold12          000000018002abbc     LIBCMT:mantold.obj
 0002:0000bbd4       $unwind$__delayLoadHelper2 000000018002abd4     DelayImp:delayhlp.obj
 0002:0000d090       .edata                     000000018002c090     fibers.exp
 0002:0000d0b8       rgpv                       000000018002c0b8     fibers.exp
 0002:0000d0bc       rgszName                   000000018002c0bc     fibers.exp
 0002:0000d0c0       rgwOrd                     000000018002c0c0     fibers.exp
 0002:0000d0c2       szName                     000000018002c0c2     fibers.exp
 0002:0000d0ce       $N00001                    000000018002c0ce     fibers.exp
 0002:0000d464       .idata$6                   000000018002c464     kernel32:KERNEL32.dll
 0003:00000000       init                       000000018002d000     libcpmt:xlock.obj
 0003:00000010       atcount_cdecl              000000018002d010     libcpmt:iosptrs.obj
 0003:000001d0       _assertstring              000000018002d1d0     LIBCMT:wassert.obj
 0003:00000220       dotdotdot                  000000018002d220     LIBCMT:wassert.obj
 0003:00000228       newline                    000000018002d228     LIBCMT:wassert.obj
 0003:00000230       dblnewline                 000000018002d230     LIBCMT:wassert.obj
 0003:00000620       _locktable                 000000018002d620     LIBCMT:mlock.obj
 0003:00000874       ?isPackaged@?1??__crtIsPackagedApp@@9@9 000000018002d874     LIBCMT:winapisupp.obj
 0003:00000930       errtable                   000000018002d930     LIBCMT:dosmap.obj
 0003:00000a98       ErrnoNoMem                 000000018002da98     LIBCMT:dosmap.obj
 0003:00000a9c       DoserrorNoMem              000000018002da9c     LIBCMT:dosmap.obj
 0003:00000aa8       ?dazSupported@?1??_ctrlfp@@9@9 000000018002daa8     LIBCMT:fpctrl.obj
 0003:00000f38       __rgctypeflag              000000018002df38     LIBCMT:mbctype.obj
 0003:00000f40       __rgcode_page_info         000000018002df40     LIBCMT:mbctype.obj
 0003:00001480       _ctype_loc_style           000000018002e480     LIBCMT:wsetloca.obj
 0003:00001520       ?_names@?1??_get_fname@@9@9 000000018002e520     LIBCMT:fpexcept.obj
 0003:00001700       dststart                   000000018002e700     LIBCMT:tzset.obj
 0003:00001710       dstend                     000000018002e710     LIBCMT:tzset.obj
 0003:00001730       tzstd                      000000018002e730     LIBCMT:timeset.obj
 0003:00001770       tzdst                      000000018002e770     LIBCMT:timeset.obj
 0003:00001940       DoubleFormat               000000018002e940     LIBCMT:intrncvt.obj
 0003:00001958       FloatFormat                000000018002e958     LIBCMT:intrncvt.obj
 0003:00001c50       _module                    000000018002ec50     fibers.obj
 0003:00001c98       thread_data_key            000000018002ec98     coroutine.obj
 0003:00001c9c       isolate_key                000000018002ec9c     coroutine.obj
 0003:00001ca0       thread_id_key              000000018002eca0     coroutine.obj
 0003:00002308       allocator_arg              000000018002f308     libcpmt:syserror.obj
 0003:00002309       piecewise_construct        000000018002f309     libcpmt:syserror.obj
 0003:00002318       _Tuple_alloc               000000018002f318     libcpmt:xthrow.obj
 0003:00002319       ignore                     000000018002f319     libcpmt:xthrow.obj
 0003:0000231a       allocator_arg              000000018002f31a     libcpmt:xthrow.obj
 0003:0000231b       piecewise_construct        000000018002f31b     libcpmt:xthrow.obj
 0003:00002340       ferr                       000000018002f340     libcpmt:cerr.obj
 0003:000023d8       init_cerr                  000000018002f3d8     libcpmt:cerr.obj
 0003:000023d9       allocator_arg              000000018002f3d9     libcpmt:cerr.obj
 0003:000023da       piecewise_construct        000000018002f3da     libcpmt:cerr.obj
 0003:000023db       initlocks                  000000018002f3db     libcpmt:cerr.obj
 0003:00002470       initlocks                  000000018002f470     libcpmt:xlock.obj
 0003:00002480       mtx                        000000018002f480     libcpmt:xlock.obj
 0003:00002528       global_locale              000000018002f528     libcpmt:locale0.obj
 0003:00002538       _Fac_head                  000000018002f538     libcpmt:locale0.obj
 0003:00002558       allocator_arg              000000018002f558     libcpmt:locale0.obj
 0003:00002559       piecewise_construct        000000018002f559     libcpmt:locale0.obj
 0003:0000255a       _Fac_tidy_reg              000000018002f55a     libcpmt:locale0.obj
 0003:00002560       classic_locale             000000018002f560     libcpmt:locale0.obj
 0003:00002578       ?registered@?1??_Setgloballocale@locale@std@@CAXPEAX@Z@4_NA 000000018002f578     libcpmt:locale0.obj
 0003:00002590       stdstr                     000000018002f590     libcpmt:ios.obj
 0003:000025e0       stdopens                   000000018002f5e0     libcpmt:ios.obj
 0003:000025ea       allocator_arg              000000018002f5ea     libcpmt:ios.obj
 0003:000025eb       piecewise_construct        000000018002f5eb     libcpmt:ios.obj
 0003:00002630       atfuns_cdecl               000000018002f630     libcpmt:iosptrs.obj
 0003:00002680       initlocks                  000000018002f680     libcpmt:iosptrs.obj
 0003:00002681       allocator_arg              000000018002f681     libcpmt:iosptrs.obj
 0003:00002682       piecewise_construct        000000018002f682     libcpmt:iosptrs.obj
 0003:00002683       init_atexit                000000018002f683     libcpmt:iosptrs.obj
 0003:00002684       allocator_arg              000000018002f684     libcpmt:locale.obj
 0003:00002685       piecewise_construct        000000018002f685     libcpmt:locale.obj
 0003:00002698       allocator_arg              000000018002f698     libcpmt:wlocale.obj
 0003:00002699       piecewise_construct        000000018002f699     libcpmt:wlocale.obj
 0003:00002748       allocator_arg              000000018002f748     libcpmt:xlocale.obj
 0003:00002749       piecewise_construct        000000018002f749     libcpmt:xlocale.obj
 0003:00002790       allocator_arg              000000018002f790     libcpmt:xdateord.obj
 0003:00002791       piecewise_construct        000000018002f791     libcpmt:xdateord.obj
 0003:00002808       __proc_attached            000000018002f808     LIBCMT:dllcrt0.obj
 0003:00002830       lclcritsects               000000018002f830     LIBCMT:mlock.obj
 0003:00002a70       __crtCallProc              000000018002fa70     LIBCMT:winapinls.obj
 0003:00002a80       GS_ExceptionRecord         000000018002fa80     LIBCMT:gs_report.obj
 0003:00002b20       GS_ContextRecord           000000018002fb20     LIBCMT:gs_report.obj
 0003:00002ff0       DebuggerWasPresent         000000018002fff0     LIBCMT:gs_report.obj
 0003:00003000       ctrlc_action               0000000180030000     LIBCMT:winsig.obj
 0003:00003008       ctrlbreak_action           0000000180030008     LIBCMT:winsig.obj
 0003:00003010       abort_action               0000000180030010     LIBCMT:winsig.obj
 0003:00003018       term_action                0000000180030018     LIBCMT:winsig.obj
 0003:00003020       ConsoleCtrlHandler_Installed 0000000180030020     LIBCMT:winsig.obj
 0003:00003028       ?pfnMessageBox@?1??__crtMessageBoxW@@9@9 0000000180030028     LIBCMT:crtmboxw.obj
 0003:00003030       ?pfnGetActiveWindow@?1??__crtMessageBoxW@@9@9 0000000180030030     LIBCMT:crtmboxw.obj
 0003:00003038       ?pfnGetLastActivePopup@?1??__crtMessageBoxW@@9@9 0000000180030038     LIBCMT:crtmboxw.obj
 0003:00003040       ?pfnGetProcessWindowStation@?1??__crtMessageBoxW@@9@9 0000000180030040     LIBCMT:crtmboxw.obj
 0003:00003048       ?pfnGetUserObjectInformation@?1??__crtMessageBoxW@@9@9 0000000180030048     LIBCMT:crtmboxw.obj
 0003:00003060       ?outmsg@?8??_NMSG_WRITE@@9@9 0000000180030060     LIBCMT:crt0msg.obj
 0003:000036a0       g_pfnRtlGenRandom          00000001800306a0     LIBCMT:rand_s.obj
 0003:000036c8       fSystemSet                 00000001800306c8     LIBCMT:mbctype.obj
 0003:000038f0       ?_pgmname@?1??_setargv@@9@9 00000001800308f0     LIBCMT:stdargv.obj
 0003:00003a00       __type_info_root_node      0000000180030a00     LIBCMT:typname.obj
 0003:00003a20       lastTZ                     0000000180030a20     LIBCMT:tzset.obj
 0003:00003a28       ?first_time@?1??__tzset@@9@9 0000000180030a28     LIBCMT:tzset.obj
 0003:00003a2c       tzapiused                  0000000180030a2c     LIBCMT:tzset.obj
 0003:00003a30       tzinfo                     0000000180030a30     LIBCMT:tzset.obj
 0003:00003b28       heap                       0000000180030b28     LIBCMT:undname.obj
 0003:00003b58       __enable_percent_n         0000000180030b58     LIBCMT:printf.obj
 0003:00003b80       coroutines_created_        0000000180030b80     coroutine.obj
 0003:00003b88       delete_me                  0000000180030b88     coroutine.obj
 0003:00003b90       stack_size                 0000000180030b90     coroutine.obj
 0003:00003b98       coro_thread_key            0000000180030b98     coroutine.obj
 0003:00003b9c       allocator_arg              0000000180030b9c     fibers.obj
 0003:00003b9d       piecewise_construct        0000000180030b9d     fibers.obj
 0003:00003b9e       allocator_arg              0000000180030b9e     coroutine.obj
 0003:00003b9f       piecewise_construct        0000000180030b9f     coroutine.obj
 0003:00003bd0       fiber_pool                 0000000180030bd0     coroutine.obj
 0003:00003be8       fls_data_pool              0000000180030be8     coroutine.obj
 0004:00000000       $pdata$??__Ecerr@std@@YAXXZ 0000000180032000     libcpmt:cerr.obj
 0004:0000000c       $pdata$??__Eferr@std@@YAXXZ 000000018003200c     libcpmt:cerr.obj
 0004:00000018       $pdata$??__Einitlocks@@YAXXZ 0000000180032018     libcpmt:cerr.obj
 0004:00000024       $pdata$??__Einitlocks@std@@YAXXZ 0000000180032024     libcpmt:xlock.obj
 0004:00000030       $pdata$??__Einitlocks@std@@YAXXZ 0000000180032030     libcpmt:iosptrs.obj
 0004:0000003c       $pdata$??_Gexception@stdext@@UEAAPEAXI@Z 000000018003203c     fibers.obj
 0004:0000003c       $pdata$??_G_System_error@std@@UEAAPEAXI@Z 000000018003203c     fibers.obj
 0004:0000003c       $pdata$??_Gfailure@ios_base@std@@UEAAPEAXI@Z 000000018003203c     fibers.obj
 0004:0000003c       $pdata$??_Gruntime_error@std@@UEAAPEAXI@Z 000000018003203c     fibers.obj
 0004:00000048       $pdata$??0_System_error@std@@IEAA@Verror_code@1@AEBV?$basic_string@DU?$char_traits@D@std@@V?$allocator@D@2@@1@@Z 0000000180032048     fibers.obj
 0004:00000054       $pdata$?clear@ios_base@std@@QEAAXH_N@Z 0000000180032054     fibers.obj
 0004:00000060       $pdata$0$?clear@ios_base@std@@QEAAXH_N@Z 0000000180032060     fibers.obj
 0004:0000006c       $pdata$1$?clear@ios_base@std@@QEAAXH_N@Z 000000018003206c     fibers.obj
 0004:00000078       $pdata$2$?clear@ios_base@std@@QEAAXH_N@Z 0000000180032078     fibers.obj
 0004:00000084       $pdata$?AdjustAmountOfExternalAllocatedMemory@uni@@YAXPEAVIsolate@v8@@_J@Z 0000000180032084     fibers.obj
 0004:00000090       $pdata$?Unwrap@Fiber@@CAAEAV1@V?$Local@VObject@v8@@@v8@@@Z 0000000180032090     fibers.obj
 0004:0000009c       $pdata$??0Fiber@@AEAA@V?$Local@VObject@v8@@@v8@@V?$Local@VFunction@v8@@@2@V?$Local@VContext@v8@@@2@@Z 000000018003209c     fibers.obj
 0004:000000a8       $pdata$??1Fiber@@EEAA@XZ   00000001800320a8     fibers.obj
 0004:000000b4       $pdata$?WeakCallback@Fiber@@CAXPEAX@Z 00000001800320b4     fibers.obj
 0004:000000c0       $pdata$0$?WeakCallback@Fiber@@CAXPEAX@Z 00000001800320c0     fibers.obj
 0004:000000cc       $pdata$1$?WeakCallback@Fiber@@CAXPEAX@Z 00000001800320cc     fibers.obj
 0004:000000d8       $pdata$?DestroyOrphans@Fiber@@CAXXZ 00000001800320d8     fibers.obj
 0004:000000e4       $pdata$4$?DestroyOrphans@Fiber@@CAXXZ 00000001800320e4     fibers.obj
 0004:000000f0       $pdata$5$?DestroyOrphans@Fiber@@CAXXZ 00000001800320f0     fibers.obj
 0004:000000fc       $pdata$6$?DestroyOrphans@Fiber@@CAXXZ 00000001800320fc     fibers.obj
 0004:00000108       $pdata$?New@Fiber@@CAXAEBV?$FunctionCallbackInfo@VValue@v8@@@v8@@@Z 0000000180032108     fibers.obj
 0004:00000114       $pdata$0$?New@Fiber@@CAXAEBV?$FunctionCallbackInfo@VValue@v8@@@v8@@@Z 0000000180032114     fibers.obj
 0004:00000120       $pdata$1$?New@Fiber@@CAXAEBV?$FunctionCallbackInfo@VValue@v8@@@v8@@@Z 0000000180032120     fibers.obj
 0004:0000012c       $pdata$?Run@Fiber@@CAXAEBV?$FunctionCallbackInfo@VValue@v8@@@v8@@@Z 000000018003212c     fibers.obj
 0004:00000138       $pdata$?ThrowInto@Fiber@@CAXAEBV?$FunctionCallbackInfo@VValue@v8@@@v8@@@Z 0000000180032138     fibers.obj
 0004:00000144       $pdata$0$?ThrowInto@Fiber@@CAXAEBV?$FunctionCallbackInfo@VValue@v8@@@v8@@@Z 0000000180032144     fibers.obj
 0004:00000150       $pdata$2$?ThrowInto@Fiber@@CAXAEBV?$FunctionCallbackInfo@VValue@v8@@@v8@@@Z 0000000180032150     fibers.obj
 0004:0000015c       $pdata$4$?ThrowInto@Fiber@@CAXAEBV?$FunctionCallbackInfo@VValue@v8@@@v8@@@Z 000000018003215c     fibers.obj
 0004:00000168       $pdata$?Reset@Fiber@@CAXAEBV?$FunctionCallbackInfo@VValue@v8@@@v8@@@Z 0000000180032168     fibers.obj
 0004:00000174       $pdata$?UnwindStack@Fiber@@AEAAXXZ 0000000180032174     fibers.obj
 0004:00000180       $pdata$?SwapContext@Fiber@@AEAAXXZ 0000000180032180     fibers.obj
 0004:0000018c       $pdata$?RunFiber@Fiber@@CAXPEAPEAX@Z 000000018003218c     fibers.obj
 0004:00000198       $pdata$?Yield_@Fiber@@CAXAEBV?$FunctionCallbackInfo@VValue@v8@@@v8@@@Z 0000000180032198     fibers.obj
 0004:000001a4       $pdata$0$?Yield_@Fiber@@CAXAEBV?$FunctionCallbackInfo@VValue@v8@@@v8@@@Z 00000001800321a4     fibers.obj
 0004:000001b0       $pdata$2$?Yield_@Fiber@@CAXAEBV?$FunctionCallbackInfo@VValue@v8@@@v8@@@Z 00000001800321b0     fibers.obj
 0004:000001bc       $pdata$6$?Yield_@Fiber@@CAXAEBV?$FunctionCallbackInfo@VValue@v8@@@v8@@@Z 00000001800321bc     fibers.obj
 0004:000001c8       $pdata$?GetStarted@Fiber@@CAXV?$Local@VString@v8@@@v8@@AEBV?$PropertyCallbackInfo@VValue@v8@@@3@@Z 00000001800321c8     fibers.obj
 0004:000001d4       $pdata$?GetCurrent@Fiber@@CAXV?$Local@VString@v8@@@v8@@AEBV?$PropertyCallbackInfo@VValue@v8@@@3@@Z 00000001800321d4     fibers.obj
 0004:000001e0       $pdata$?GetPoolSize@Fiber@@CAXV?$Local@VString@v8@@@v8@@AEBV?$PropertyCallbackInfo@VValue@v8@@@3@@Z 00000001800321e0     fibers.obj
 0004:000001ec       $pdata$?SetPoolSize@Fiber@@CAXV?$Local@VString@v8@@@v8@@V?$Local@VValue@v8@@@3@AEBV?$PropertyCallbackInfo@X@3@@Z 00000001800321ec     fibers.obj
 0004:000001f8       $pdata$?GetFibersCreated@Fiber@@CAXV?$Local@VString@v8@@@v8@@AEBV?$PropertyCallbackInfo@VValue@v8@@@3@@Z 00000001800321f8     fibers.obj
 0004:00000204       $pdata$?Init@Fiber@@SAXV?$Local@VObject@v8@@@v8@@@Z 0000000180032204     fibers.obj
 0004:00000210       $pdata$??_GFiber@@EEAAPEAXI@Z 0000000180032210     fibers.obj
 0004:0000021c       $pdata$?init@@YAXV?$Local@VObject@v8@@@v8@@@Z 000000018003221c     fibers.obj
 0004:00000228       $pdata$??1?$basic_string@DU?$char_traits@D@std@@V?$allocator@D@2@@std@@QEAA@XZ 0000000180032228     fibers.obj
 0004:00000234       $pdata$??0?$vector@PEAVFiber@@V?$allocator@PEAVFiber@@@std@@@std@@QEAA@AEBV01@@Z 0000000180032234     fibers.obj
 0004:00000240       $pdata$?append@?$basic_string@DU?$char_traits@D@std@@V?$allocator@D@2@@std@@QEAAAEAV12@AEBV12@_K1@Z 0000000180032240     fibers.obj
 0004:0000024c       $pdata$0$?append@?$basic_string@DU?$char_traits@D@std@@V?$allocator@D@2@@std@@QEAAAEAV12@AEBV12@_K1@Z 000000018003224c     fibers.obj
 0004:00000258       $pdata$1$?append@?$basic_string@DU?$char_traits@D@std@@V?$allocator@D@2@@std@@QEAAAEAV12@AEBV12@_K1@Z 0000000180032258     fibers.obj
 0004:00000264       $pdata$2$?append@?$basic_string@DU?$char_traits@D@std@@V?$allocator@D@2@@std@@QEAAAEAV12@AEBV12@_K1@Z 0000000180032264     fibers.obj
 0004:00000270       $pdata$?append@?$basic_string@DU?$char_traits@D@std@@V?$allocator@D@2@@std@@QEAAAEAV12@PEBD_K@Z 0000000180032270     fibers.obj
 0004:0000027c       $pdata$0$?append@?$basic_string@DU?$char_traits@D@std@@V?$allocator@D@2@@std@@QEAAAEAV12@PEBD_K@Z 000000018003227c     fibers.obj
 0004:00000288       $pdata$1$?append@?$basic_string@DU?$char_traits@D@std@@V?$allocator@D@2@@std@@QEAAAEAV12@PEBD_K@Z 0000000180032288     fibers.obj
 0004:00000294       $pdata$2$?append@?$basic_string@DU?$char_traits@D@std@@V?$allocator@D@2@@std@@QEAAAEAV12@PEBD_K@Z 0000000180032294     fibers.obj
 0004:000002a0       $pdata$?assign@?$basic_string@DU?$char_traits@D@std@@V?$allocator@D@2@@std@@QEAAAEAV12@AEBV12@_K1@Z 00000001800322a0     fibers.obj
 0004:000002ac       $pdata$?_Reserve@?$vector@PEAVFiber@@V?$allocator@PEAVFiber@@@std@@@std@@IEAAX_K@Z 00000001800322ac     fibers.obj
 0004:000002b8       $pdata$?assign@?$basic_string@DU?$char_traits@D@std@@V?$allocator@D@2@@std@@QEAAAEAV12@PEBD_K@Z 00000001800322b8     fibers.obj
 0004:000002c4       $pdata$?erase@?$basic_string@DU?$char_traits@D@std@@V?$allocator@D@2@@std@@QEAAAEAV12@_K0@Z 00000001800322c4     fibers.obj
 0004:000002d0       $pdata$?_Grow@?$basic_string@DU?$char_traits@D@std@@V?$allocator@D@2@@std@@QEAA_N_K_N@Z 00000001800322d0     fibers.obj
 0004:000002dc       $pdata$0$?_Grow@?$basic_string@DU?$char_traits@D@std@@V?$allocator@D@2@@std@@QEAA_N_K_N@Z 00000001800322dc     fibers.obj
 0004:000002e8       $pdata$1$?_Grow@?$basic_string@DU?$char_traits@D@std@@V?$allocator@D@2@@std@@QEAA_N_K_N@Z 00000001800322e8     fibers.obj
 0004:000002f4       $pdata$2$?_Grow@?$basic_string@DU?$char_traits@D@std@@V?$allocator@D@2@@std@@QEAA_N_K_N@Z 00000001800322f4     fibers.obj
 0004:00000300       $pdata$3$?_Grow@?$basic_string@DU?$char_traits@D@std@@V?$allocator@D@2@@std@@QEAA_N_K_N@Z 0000000180032300     fibers.obj
 0004:0000030c       $pdata$4$?_Grow@?$basic_string@DU?$char_traits@D@std@@V?$allocator@D@2@@std@@QEAA_N_K_N@Z 000000018003230c     fibers.obj
 0004:00000318       $pdata$5$?_Grow@?$basic_string@DU?$char_traits@D@std@@V?$allocator@D@2@@std@@QEAA_N_K_N@Z 0000000180032318     fibers.obj
 0004:00000324       $pdata$?flush@?$basic_ostream@DU?$char_traits@D@std@@@std@@QEAAAEAV12@XZ 0000000180032324     fibers.obj
 0004:00000330       $pdata$0$?flush@?$basic_ostream@DU?$char_traits@D@std@@@std@@QEAAAEAV12@XZ 0000000180032330     fibers.obj
 0004:0000033c       $pdata$1$?flush@?$basic_ostream@DU?$char_traits@D@std@@@std@@QEAAAEAV12@XZ 000000018003233c     fibers.obj
 0004:00000348       $pdata$?_Reallocate@?$vector@PEAVFiber@@V?$allocator@PEAVFiber@@@std@@@std@@IEAAX_K@Z 0000000180032348     fibers.obj
 0004:00000354       $pdata$0$?_Reallocate@?$vector@PEAVFiber@@V?$allocator@PEAVFiber@@@std@@@std@@IEAAX_K@Z 0000000180032354     fibers.obj
 0004:00000360       $pdata$1$?_Reallocate@?$vector@PEAVFiber@@V?$allocator@PEAVFiber@@@std@@@std@@IEAAX_K@Z 0000000180032360     fibers.obj
 0004:0000036c       $pdata$?_Copy@?$basic_string@DU?$char_traits@D@std@@V?$allocator@D@2@@std@@QEAAX_K0@Z 000000018003236c     fibers.obj
 0004:00000378       $pdata$??0sentry@?$basic_ostream@DU?$char_traits@D@std@@@std@@QEAA@AEAV12@@Z 0000000180032378     fibers.obj
 0004:00000384       $pdata$??$?6U?$char_traits@D@std@@@std@@YAAEAV?$basic_ostream@DU?$char_traits@D@std@@@0@AEAV10@PEBD@Z 0000000180032384     fibers.obj
 0004:00000390       $pdata$3$??$?6U?$char_traits@D@std@@@std@@YAAEAV?$basic_ostream@DU?$char_traits@D@std@@@0@AEAV10@PEBD@Z 0000000180032390     fibers.obj
 0004:0000039c       $pdata$4$??$?6U?$char_traits@D@std@@@std@@YAAEAV?$basic_ostream@DU?$char_traits@D@std@@@0@AEAV10@PEBD@Z 000000018003239c     fibers.obj
 0004:000003a8       $pdata$5$??$?6U?$char_traits@D@std@@@std@@YAAEAV?$basic_ostream@DU?$char_traits@D@std@@@0@AEAV10@PEBD@Z 00000001800323a8     fibers.obj
 0004:000003b4       $pdata$??$Reset@VValue@v8@@@uni@@YAXPEAVIsolate@v8@@AEAV?$Persistent@VValue@v8@@V?$NonCopyablePersistentTraits@VValue@v8@@@2@@2@V?$Local@VValue@v8@@@2@@Z 00000001800323b4     fibers.obj
 0004:000003c0       $pdata$?find_thread_id_key@@YAKPEAX@Z 00000001800323c0     coroutine.obj
 0004:000003cc       $pdata$1$?find_thread_id_key@@YAKPEAX@Z 00000001800323cc     coroutine.obj
 0004:000003d8       $pdata$2$?find_thread_id_key@@YAKPEAX@Z 00000001800323d8     coroutine.obj
 0004:000003e4       $pdata$3$?find_thread_id_key@@YAKPEAX@Z 00000001800323e4     coroutine.obj
 0004:000003f0       $pdata$4$?find_thread_id_key@@YAKPEAX@Z 00000001800323f0     coroutine.obj
 0004:000003fc       $pdata$?init@Coroutine@@SAXPEAVIsolate@v8@@@Z 00000001800323fc     coroutine.obj
 0004:00000408       $pdata$?trampoline@Coroutine@@CAXPEAX@Z 0000000180032408     coroutine.obj
 0004:00000414       $pdata$??0Coroutine@@AEAA@XZ 0000000180032414     coroutine.obj
 0004:00000420       $pdata$??0Coroutine@@AEAA@A6AXPEAX@Z0@Z 0000000180032420     coroutine.obj
 0004:0000042c       $pdata$?create_fiber@Coroutine@@SAPEAV1@P6AXPEAX@Z0@Z 000000018003242c     coroutine.obj
 0004:00000438       $pdata$0$?create_fiber@Coroutine@@SAPEAV1@P6AXPEAX@Z0@Z 0000000180032438     coroutine.obj
 0004:00000444       $pdata$1$?create_fiber@Coroutine@@SAPEAV1@P6AXPEAX@Z0@Z 0000000180032444     coroutine.obj
 0004:00000450       $pdata$??_GCoroutine@@AEAAPEAXI@Z 0000000180032450     coroutine.obj
 0004:0000045c       $pdata$?transfer@Coroutine@@AEAAXAEAV1@@Z 000000018003245c     coroutine.obj
 0004:00000468       $pdata$?run@Coroutine@@QEAAXXZ 0000000180032468     coroutine.obj
 0004:00000474       $pdata$?finish@Coroutine@@QEAAXAEAV1@@Z 0000000180032474     coroutine.obj
 0004:00000480       $pdata$?resize@?$vector@PEAXV?$allocator@PEAX@std@@@std@@QEAAX_K@Z 0000000180032480     coroutine.obj
 0004:0000048c       $pdata$?_Reallocate@?$vector@PEAXV?$allocator@PEAX@std@@@std@@IEAAX_K@Z 000000018003248c     coroutine.obj
 0004:00000498       $pdata$0$?_Reallocate@?$vector@PEAXV?$allocator@PEAX@std@@@std@@IEAAX_K@Z 0000000180032498     coroutine.obj
 0004:000004a4       $pdata$1$?_Reallocate@?$vector@PEAXV?$allocator@PEAX@std@@@std@@IEAAX_K@Z 00000001800324a4     coroutine.obj
 0004:000004b0       $pdata$?_Reserve@?$vector@PEAXV?$allocator@PEAX@std@@@std@@IEAAX_K@Z 00000001800324b0     coroutine.obj
 0004:000004bc       $pdata$?_Reserve@?$vector@PEAVCoroutine@@V?$allocator@PEAVCoroutine@@@std@@@std@@IEAAX_K@Z 00000001800324bc     coroutine.obj
 0004:000004c8       $pdata$?_Reallocate@?$vector@PEAVCoroutine@@V?$allocator@PEAVCoroutine@@@std@@@std@@IEAAX_K@Z 00000001800324c8     coroutine.obj
 0004:000004d4       $pdata$0$?_Reallocate@?$vector@PEAVCoroutine@@V?$allocator@PEAVCoroutine@@@std@@@std@@IEAAX_K@Z 00000001800324d4     coroutine.obj
 0004:000004e0       $pdata$1$?_Reallocate@?$vector@PEAVCoroutine@@V?$allocator@PEAVCoroutine@@@std@@@std@@IEAAX_K@Z 00000001800324e0     coroutine.obj
 0004:000004ec       $pdata$load_exe_hook       00000001800324ec     win_delay_load_hook.obj
 0004:00000504       $pdata$??0bad_alloc@std@@QEAA@AEBV01@@Z 0000000180032504     libcpmt:xthrow.obj
 0004:00000510       $pdata$??0length_error@std@@QEAA@AEBV01@@Z 0000000180032510     libcpmt:xthrow.obj
 0004:0000051c       $pdata$??0logic_error@std@@QEAA@AEBV01@@Z 000000018003251c     libcpmt:xthrow.obj
 0004:00000528       $pdata$??0out_of_range@std@@QEAA@AEBV01@@Z 0000000180032528     libcpmt:xthrow.obj
 0004:00000534       $pdata$??0runtime_error@std@@QEAA@AEBV01@@Z 0000000180032534     libcpmt:xthrow.obj
 0004:00000540       $pdata$??_Gbad_alloc@std@@UEAAPEAXI@Z 0000000180032540     libcpmt:xthrow.obj
 0004:0000054c       $pdata$??_Glogic_error@std@@UEAAPEAXI@Z 000000018003254c     libcpmt:xthrow.obj
 0004:0000054c       $pdata$??_Glength_error@std@@UEAAPEAXI@Z 000000018003254c     libcpmt:xthrow.obj
 0004:0000054c       $pdata$??_Gout_of_range@std@@UEAAPEAXI@Z 000000018003254c     libcpmt:xthrow.obj
 0004:00000558       $pdata$?_Xbad_alloc@std@@YAXXZ 0000000180032558     libcpmt:xthrow.obj
 0004:00000564       $pdata$?_Xlength_error@std@@YAXPEBD@Z 0000000180032564     libcpmt:xthrow.obj
 0004:00000570       $pdata$?_Xout_of_range@std@@YAXPEBD@Z 0000000180032570     libcpmt:xthrow.obj
 0004:0000057c       $pdata$??$use_facet@V?$codecvt@DDH@std@@@std@@YAAEBV?$codecvt@DDH@0@AEBVlocale@0@@Z 000000018003257c     libcpmt:cerr.obj
 0004:00000588       $pdata$??$use_facet@V?$ctype@D@std@@@std@@YAAEBV?$ctype@D@0@AEBVlocale@0@@Z 0000000180032588     libcpmt:cerr.obj
 0004:00000594       $pdata$??0?$basic_ostream@DU?$char_traits@D@std@@@std@@QEAA@PEAV?$basic_streambuf@DU?$char_traits@D@std@@@1@_N@Z 0000000180032594     libcpmt:cerr.obj
 0004:000005a0       $pdata$??0?$basic_streambuf@DU?$char_traits@D@std@@@std@@IEAA@XZ 00000001800325a0     libcpmt:cerr.obj
 0004:000005ac       $pdata$??0_Locinfo@std@@QEAA@PEBD@Z 00000001800325ac     libcpmt:cerr.obj
 0004:000005b8       $pdata$??1?$_Yarn@D@std@@QEAA@XZ 00000001800325b8     libcpmt:cerr.obj
 0004:000005b8       $pdata$??1?$_Yarn@_W@std@@QEAA@XZ 00000001800325b8     libcpmt:cerr.obj
 0004:000005c4       $pdata$??1?$basic_filebuf@DU?$char_traits@D@std@@@std@@UEAA@XZ 00000001800325c4     libcpmt:cerr.obj
 0004:000005d0       $pdata$??1_Locinfo@std@@QEAA@XZ 00000001800325d0     libcpmt:cerr.obj
 0004:000005dc       $pdata$??1locale@std@@QEAA@XZ 00000001800325dc     libcpmt:cerr.obj
 0004:000005dc       $pdata$_Deletegloballocale 00000001800325dc     libcpmt:cerr.obj
 0004:000005e8       $pdata$??_G?$basic_filebuf@DU?$char_traits@D@std@@@std@@UEAAPEAXI@Z 00000001800325e8     libcpmt:cerr.obj
 0004:000005f4       $pdata$??_Gios_base@std@@UEAAPEAXI@Z 00000001800325f4     libcpmt:cerr.obj
 0004:000005f4       $pdata$??_G?$basic_ios@DU?$char_traits@D@std@@@std@@UEAAPEAXI@Z 00000001800325f4     libcpmt:cerr.obj
 0004:00000600       $pdata$??_G?$basic_ostream@DU?$char_traits@D@std@@@std@@UEAAPEAXI@Z 0000000180032600     libcpmt:cerr.obj
 0004:0000060c       $pdata$??_G?$basic_streambuf@DU?$char_traits@D@std@@@std@@UEAAPEAXI@Z 000000018003260c     libcpmt:cerr.obj
 0004:00000618       $pdata$??_G?$ctype@D@std@@MEAAPEAXI@Z 0000000180032618     libcpmt:cerr.obj
 0004:00000624       $pdata$??_G_Facet_base@std@@UEAAPEAXI@Z 0000000180032624     libcpmt:cerr.obj
 0004:00000624       $pdata$??_G?$codecvt@DDH@std@@MEAAPEAXI@Z 0000000180032624     libcpmt:cerr.obj
 0004:00000630       $pdata$?_Endwrite@?$basic_filebuf@DU?$char_traits@D@std@@@std@@IEAA_NXZ 0000000180032630     libcpmt:cerr.obj
 0004:0000063c       $pdata$?_Getcat@?$codecvt@DDH@std@@SA_KPEAPEBVfacet@locale@2@PEBV42@@Z 000000018003263c     libcpmt:cerr.obj
 0004:00000648       $pdata$?_Getcat@?$ctype@D@std@@SA_KPEAPEBVfacet@locale@2@PEBV42@@Z 0000000180032648     libcpmt:cerr.obj
 0004:00000654       $pdata$?_Init@ios_base@std@@IEAAXXZ 0000000180032654     libcpmt:cerr.obj
 0004:00000660       $pdata$?_Initcvt@?$basic_filebuf@DU?$char_traits@D@std@@@std@@IEAAXPEBV?$codecvt@DDH@2@@Z 0000000180032660     libcpmt:cerr.obj
 0004:0000066c       $pdata$?_Lock@?$basic_filebuf@DU?$char_traits@D@std@@@std@@UEAAXXZ 000000018003266c     libcpmt:cerr.obj
 0004:00000678       $pdata$?_Unlock@?$basic_filebuf@DU?$char_traits@D@std@@@std@@UEAAXXZ 0000000180032678     libcpmt:cerr.obj
 0004:00000684       $pdata$?append@?$basic_string@DU?$char_traits@D@std@@V?$allocator@D@2@@std@@QEAAAEAV12@_KD@Z 0000000180032684     libcpmt:cerr.obj
 0004:00000690       $pdata$?do_narrow@?$ctype@D@std@@MEBAPEBDPEBD0DPEAD@Z 0000000180032690     libcpmt:cerr.obj
 0004:0000069c       $pdata$?do_tolower@?$ctype@D@std@@MEBAPEBDPEADPEBD@Z 000000018003269c     libcpmt:cerr.obj
 0004:000006a8       $pdata$?do_toupper@?$ctype@D@std@@MEBAPEBDPEADPEBD@Z 00000001800326a8     libcpmt:cerr.obj
 0004:000006b4       $pdata$?do_widen@?$ctype@D@std@@MEBAPEBDPEBD0PEAD@Z 00000001800326b4     libcpmt:cerr.obj
 0004:000006c0       $pdata$?getloc@ios_base@std@@QEBA?AVlocale@2@XZ 00000001800326c0     libcpmt:cerr.obj
 0004:000006cc       $pdata$?imbue@?$basic_filebuf@DU?$char_traits@D@std@@@std@@MEAAXAEBVlocale@2@@Z 00000001800326cc     libcpmt:cerr.obj
 0004:000006d8       $pdata$?init@?$basic_ios@DU?$char_traits@D@std@@@std@@IEAAXPEAV?$basic_streambuf@DU?$char_traits@D@std@@@2@_N@Z 00000001800326d8     libcpmt:cerr.obj
 0004:000006e4       $pdata$?overflow@?$basic_filebuf@DU?$char_traits@D@std@@@std@@MEAAHH@Z 00000001800326e4     libcpmt:cerr.obj
 0004:000006f0       $pdata$?pbackfail@?$basic_filebuf@DU?$char_traits@D@std@@@std@@MEAAHH@Z 00000001800326f0     libcpmt:cerr.obj
 0004:000006fc       $pdata$?seekoff@?$basic_filebuf@DU?$char_traits@D@std@@@std@@MEAA?AV?$fpos@H@2@_JHH@Z 00000001800326fc     libcpmt:cerr.obj
 0004:00000708       $pdata$?seekpos@?$basic_filebuf@DU?$char_traits@D@std@@@std@@MEAA?AV?$fpos@H@2@V32@H@Z 0000000180032708     libcpmt:cerr.obj
 0004:00000714       $pdata$?setbuf@?$basic_filebuf@DU?$char_traits@D@std@@@std@@MEAAPEAV?$basic_streambuf@DU?$char_traits@D@std@@@2@PEAD_J@Z 0000000180032714     libcpmt:cerr.obj
 0004:00000720       $pdata$?sync@?$basic_filebuf@DU?$char_traits@D@std@@@std@@MEAAHXZ 0000000180032720     libcpmt:cerr.obj
 0004:0000072c       $pdata$?uflow@?$basic_filebuf@DU?$char_traits@D@std@@@std@@MEAAHXZ 000000018003272c     libcpmt:cerr.obj
 0004:00000738       $pdata$?uflow@?$basic_streambuf@DU?$char_traits@D@std@@@std@@MEAAHXZ 0000000180032738     libcpmt:cerr.obj
 0004:00000744       $pdata$?underflow@?$basic_filebuf@DU?$char_traits@D@std@@@std@@MEAAHXZ 0000000180032744     libcpmt:cerr.obj
 0004:00000750       $pdata$?xsgetn@?$basic_streambuf@DU?$char_traits@D@std@@@std@@MEAA_JPEAD_J@Z 0000000180032750     libcpmt:cerr.obj
 0004:0000075c       $pdata$?xsputn@?$basic_streambuf@DU?$char_traits@D@std@@@std@@MEAA_JPEBD_J@Z 000000018003275c     libcpmt:cerr.obj
 0004:00000768       $pdata$??0_Init_locks@std@@QEAA@XZ 0000000180032768     libcpmt:xlock.obj
 0004:00000774       $pdata$??0_Lockit@std@@QEAA@H@Z 0000000180032774     libcpmt:xlock.obj
 0004:00000780       $pdata$??1_Init_locks@std@@QEAA@XZ 0000000180032780     libcpmt:xlock.obj
 0004:0000078c       $pdata$??1_Lockit@std@@QEAA@XZ 000000018003278c     libcpmt:xlock.obj
 0004:00000798       $pdata$_Getctype           0000000180032798     libcpmt:_tolower.obj
 0004:000007a4       $pdata$_Tolower            00000001800327a4     libcpmt:_tolower.obj
 0004:000007b0       $pdata$_Toupper            00000001800327b0     libcpmt:_toupper.obj
 0004:000007bc       $pdata$??4?$_Yarn@D@std@@QEAAAEAV01@PEBD@Z 00000001800327bc     libcpmt:locale0.obj
 0004:000007c8       $pdata$??_G_Locimp@locale@std@@MEAAPEAXI@Z 00000001800327c8     libcpmt:locale0.obj
 0004:000007d4       $pdata$?_Facet_Register@std@@YAXPEAV_Facet_base@1@@Z 00000001800327d4     libcpmt:locale0.obj
 0004:000007e0       $pdata$?_Init@locale@std@@CAPEAV_Locimp@12@_N@Z 00000001800327e0     libcpmt:locale0.obj
 0004:000007ec       $pdata$?_Locimp_dtor@_Locimp@locale@std@@CAXPEAV123@@Z 00000001800327ec     libcpmt:locale0.obj
 0004:000007f8       $pdata$?_Locinfo_ctor@_Locinfo@std@@SAXPEAV12@PEBD@Z 00000001800327f8     libcpmt:locale0.obj
 0004:00000804       $pdata$?_Locinfo_dtor@_Locinfo@std@@SAXPEAV12@@Z 0000000180032804     libcpmt:locale0.obj
 0004:00000810       $pdata$?_New_Locimp@_Locimp@locale@std@@CAPEAV123@_N@Z 0000000180032810     libcpmt:locale0.obj
 0004:0000081c       $pdata$?_Setgloballocale@locale@std@@CAXPEAX@Z 000000018003281c     libcpmt:locale0.obj
 0004:00000828       $pdata$tidy_global         0000000180032828     libcpmt:locale0.obj
 0004:00000834       $pdata$?_Addstd@ios_base@std@@SAXPEAV12@@Z 0000000180032834     libcpmt:ios.obj
 0004:00000840       $pdata$?_Ios_base_dtor@ios_base@std@@CAXPEAV12@@Z 0000000180032840     libcpmt:ios.obj
 0004:0000084c       $pdata$?_Tidy@ios_base@std@@AEAAXXZ 000000018003284c     libcpmt:ios.obj
 0004:00000858       $pdata$?_Atexit@@YAXP6AXXZ@Z 0000000180032858     libcpmt:iosptrs.obj
 0004:00000870       $pdata$_call_reportfault   0000000180032870     LIBCMT:invarg.obj
 0004:0000087c       $pdata$_invalid_parameter  000000018003287c     LIBCMT:invarg.obj
 0004:00000888       $pdata$_invalid_parameter_noinfo 0000000180032888     LIBCMT:invarg.obj
 0004:00000894       $pdata$_invoke_watson      0000000180032894     LIBCMT:invarg.obj
 0004:000008ac       $pdata$_wassert            00000001800328ac     LIBCMT:wassert.obj
 0004:000008b8       $pdata$swprintf            00000001800328b8     LIBCMT:wassert.obj
 0004:000008c4       $pdata$__onexitinit        00000001800328c4     LIBCMT:onexit.obj
 0004:000008d0       $pdata$_onexit             00000001800328d0     LIBCMT:onexit.obj
 0004:000008dc       $pdata$atexit              00000001800328dc     LIBCMT:onexit.obj
 0004:000008e8       $pdata$_purecall           00000001800328e8     LIBCMT:purevirt.obj
 0004:000008f4       $pdata$__crtCorExitProcess 00000001800328f4     LIBCMT:crt0dat.obj
 0004:00000900       $pdata$__crtExitProcess    0000000180032900     LIBCMT:crt0dat.obj
 0004:0000090c       $pdata$__freeCrtMemory     000000018003290c     LIBCMT:crt0dat.obj
 0004:00000918       $pdata$_amsg_exit          0000000180032918     LIBCMT:crt0dat.obj
 0004:00000924       $pdata$_cinit              0000000180032924     LIBCMT:crt0dat.obj
 0004:00000930       $pdata$_init_pointers      0000000180032930     LIBCMT:crt0dat.obj
 0004:0000093c       $pdata$_initterm           000000018003293c     LIBCMT:crt0dat.obj
 0004:00000948       $pdata$_initterm_e         0000000180032948     LIBCMT:crt0dat.obj
 0004:00000954       $pdata$doexit              0000000180032954     LIBCMT:crt0dat.obj
 0004:00000960       $pdata$??2@YAPEAX_K@Z      0000000180032960     LIBCMT:new.obj
 0004:0000096c       $pdata$??0_LocaleUpdate@@QEAA@PEAUlocaleinfo_struct@@@Z 000000018003296c     LIBCMT:stricmp.obj
 0004:00000978       $pdata$_stricmp            0000000180032978     LIBCMT:stricmp.obj
 0004:00000984       $pdata$_stricmp_l          0000000180032984     LIBCMT:stricmp.obj
 0004:00000990       $pdata$_CRT_INIT           0000000180032990     LIBCMT:dllcrt0.obj
 0004:0000099c       $pdata$_DllMainCRTStartup  000000018003299c     LIBCMT:dllcrt0.obj
 0004:000009a8       $pdata$__DllMainCRTStartup 00000001800329a8     LIBCMT:dllcrt0.obj
 0004:000009c0       $pdata$_CxxThrowException  00000001800329c0     LIBCMT:throw.obj
 0004:000009cc       $pdata$?_GetEstablisherFrame@@YAPEA_KPEA_KPEAU_xDISPATCHER_CONTEXT@@PEBU_s_FuncInfo@@0@Z 00000001800329cc     LIBCMT:trnsctrl.obj
 0004:000009d8       $pdata$?_GetRangeOfTrysToCheck@@YAPEBU_s_TryBlockMapEntry@@PEA_KPEBU_s_FuncInfo@@HHPEAI2PEAU_xDISPATCHER_CONTEXT@@@Z 00000001800329d8     LIBCMT:trnsctrl.obj
 0004:000009e4       $pdata$?__FrameUnwindToEmptyState@@YAXPEA_KPEAU_xDISPATCHER_CONTEXT@@PEBU_s_FuncInfo@@@Z 00000001800329e4     LIBCMT:trnsctrl.obj
 0004:000009f0       $pdata$?__SehTransFilter@@YAHPEAU_EXCEPTION_POINTERS@@PEAUEHExceptionRecord@@PEA_KPEAU_CONTEXT@@PEAU_xDISPATCHER_CONTEXT@@PEBU_s_FuncInfo@@PEAH@Z 00000001800329f0     LIBCMT:trnsctrl.obj
 0004:000009fc       $pdata$_CallSETranslator   00000001800329fc     LIBCMT:trnsctrl.obj
 0004:00000a08       $pdata$_CreateFrameInfo    0000000180032a08     LIBCMT:trnsctrl.obj
 0004:00000a14       $pdata$_FindAndUnlinkFrame 0000000180032a14     LIBCMT:trnsctrl.obj
 0004:00000a20       $pdata$_GetImageBase       0000000180032a20     LIBCMT:trnsctrl.obj
 0004:00000a2c       $pdata$_GetThrowImageBase  0000000180032a2c     LIBCMT:trnsctrl.obj
 0004:00000a38       $pdata$_IsExceptionObjectToBeDestroyed 0000000180032a38     LIBCMT:trnsctrl.obj
 0004:00000a44       $pdata$_SetImageBase       0000000180032a44     LIBCMT:trnsctrl.obj
 0004:00000a50       $pdata$_SetThrowImageBase  0000000180032a50     LIBCMT:trnsctrl.obj
 0004:00000a5c       $pdata$_UnwindNestedFrames 0000000180032a5c     LIBCMT:trnsctrl.obj
 0004:00000a68       $pdata$__CxxFrameHandler3  0000000180032a68     LIBCMT:trnsctrl.obj
 0004:00000a74       $pdata$??8type_info@@QEBA_NAEBV0@@Z 0000000180032a74     LIBCMT:typinfo.obj
 0004:00000a80       $pdata$??_Gtype_info@@UEAAPEAXI@Z 0000000180032a80     LIBCMT:typinfo.obj
 0004:00000a8c       $pdata$??0bad_cast@std@@QEAA@AEBV01@@Z 0000000180032a8c     LIBCMT:stdexcpt.obj
 0004:00000a98       $pdata$??0bad_cast@std@@QEAA@PEBD@Z 0000000180032a98     LIBCMT:stdexcpt.obj
 0004:00000aa4       $pdata$??0exception@std@@QEAA@AEBQEBD@Z 0000000180032aa4     LIBCMT:stdexcpt.obj
 0004:00000ab0       $pdata$??0exception@std@@QEAA@AEBV01@@Z 0000000180032ab0     LIBCMT:stdexcpt.obj
 0004:00000abc       $pdata$??4exception@std@@QEAAAEAV01@AEBV01@@Z 0000000180032abc     LIBCMT:stdexcpt.obj
 0004:00000ac8       $pdata$??_Gexception@std@@UEAAPEAXI@Z 0000000180032ac8     LIBCMT:stdexcpt.obj
 0004:00000ac8       $pdata$??_Gbad_cast@std@@UEAAPEAXI@Z 0000000180032ac8     LIBCMT:stdexcpt.obj
 0004:00000ad4       $pdata$?_Copy_str@exception@std@@AEAAXPEBD@Z 0000000180032ad4     LIBCMT:stdexcpt.obj
 0004:00000ae0       $pdata$?_Tidy@exception@std@@AEAAXXZ 0000000180032ae0     LIBCMT:stdexcpt.obj
 0004:00000aec       $pdata$__initstdio         0000000180032aec     LIBCMT:_file.obj
 0004:00000af8       $pdata$__endstdio          0000000180032af8     LIBCMT:_file.obj
 0004:00000b04       $pdata$_lock_file          0000000180032b04     LIBCMT:_file.obj
 0004:00000b10       $pdata$_lock_file2         0000000180032b10     LIBCMT:_file.obj
 0004:00000b1c       $pdata$_fclose_nolock      0000000180032b1c     LIBCMT:fclose.obj
 0004:00000b28       $pdata$fclose              0000000180032b28     LIBCMT:fclose.obj
 0004:00000b34       $pdata$_fflush_nolock      0000000180032b34     LIBCMT:fflush.obj
 0004:00000b40       $pdata$_flush              0000000180032b40     LIBCMT:fflush.obj
 0004:00000b4c       $pdata$fflush              0000000180032b4c     LIBCMT:fflush.obj
 0004:00000b58       $pdata$flsall              0000000180032b58     LIBCMT:fflush.obj
 0004:00000b64       $pdata$fgetc               0000000180032b64     LIBCMT:fgetc.obj
 0004:00000b70       $pdata$fgetpos             0000000180032b70     LIBCMT:fgetpos.obj
 0004:00000b7c       $pdata$fputc               0000000180032b7c     LIBCMT:fputc.obj
 0004:00000b88       $pdata$fsetpos             0000000180032b88     LIBCMT:fsetpos.obj
 0004:00000b94       $pdata$_fseeki64           0000000180032b94     LIBCMT:fseeki64.obj
 0004:00000ba0       $pdata$_fseeki64_nolock    0000000180032ba0     LIBCMT:fseeki64.obj
 0004:00000bac       $pdata$_fwrite_nolock      0000000180032bac     LIBCMT:fwrite.obj
 0004:00000bb8       $pdata$fwrite              0000000180032bb8     LIBCMT:fwrite.obj
 0004:00000bc4       $pdata$setvbuf             0000000180032bc4     LIBCMT:setvbuf.obj
 0004:00000bd0       $pdata$_ungetc_nolock      0000000180032bd0     LIBCMT:ungetc.obj
 0004:00000bdc       $pdata$ungetc              0000000180032bdc     LIBCMT:ungetc.obj
 0004:00000be8       $pdata$free                0000000180032be8     LIBCMT:free.obj
 0004:00000bf4       $pdata$memcpy_s            0000000180032bf4     LIBCMT:memcpy_s.obj
 0004:00000c0c       $pdata$__GSHandlerCheck_EH 0000000180032c0c     LIBCMT:gshandlereh.obj
 0004:00000c18       $pdata$_lock               0000000180032c18     LIBCMT:mlock.obj
 0004:00000c24       $pdata$_mtdeletelocks      0000000180032c24     LIBCMT:mlock.obj
 0004:00000c30       $pdata$_mtinitlocknum      0000000180032c30     LIBCMT:mlock.obj
 0004:00000c3c       $pdata$_mtinitlocks        0000000180032c3c     LIBCMT:mlock.obj
 0004:00000c48       $pdata$__pctype_func       0000000180032c48     LIBCMT:ctype.obj
 0004:00000c54       $pdata$isdigit             0000000180032c54     LIBCMT:_ctype.obj
 0004:00000c60       $pdata$islower             0000000180032c60     LIBCMT:_ctype.obj
 0004:00000c6c       $pdata$isupper             0000000180032c6c     LIBCMT:_ctype.obj
 0004:00000c78       $pdata$_wcsdup             0000000180032c78     LIBCMT:wcsdup.obj
 0004:00000c84       $pdata$___lc_codepage_func 0000000180032c84     LIBCMT:initctyp.obj
 0004:00000c90       $pdata$___lc_locale_name_func 0000000180032c90     LIBCMT:initctyp.obj
 0004:00000c9c       $pdata$__init_ctype        0000000180032c9c     LIBCMT:initctyp.obj
 0004:00000ca8       $pdata$?__crtLCMapStringA_stat@@YAHPEAUlocaleinfo_struct@@PEB_WKPEBDHPEADHHH@Z 0000000180032ca8     LIBCMT:a_map.obj
 0004:00000cb4       $pdata$__crtLCMapStringA   0000000180032cb4     LIBCMT:a_map.obj
 0004:00000cc0       $pdata$_calloc_crt         0000000180032cc0     LIBCMT:crtheap.obj
 0004:00000ccc       $pdata$_malloc_crt         0000000180032ccc     LIBCMT:crtheap.obj
 0004:00000cd8       $pdata$_realloc_crt        0000000180032cd8     LIBCMT:crtheap.obj
 0004:00000ce4       $pdata$malloc              0000000180032ce4     LIBCMT:malloc.obj
 0004:00000cf0       $pdata$setlocale           0000000180032cf0     LIBCMT:setlocal.obj
 0004:00000cfc       $pdata$abort               0000000180032cfc     LIBCMT:abort.obj
 0004:00000d08       $pdata$__crtCaptureCurrentContext 0000000180032d08     LIBCMT:winapisupp.obj
 0004:00000d14       $pdata$__crtCapturePreviousContext 0000000180032d14     LIBCMT:winapisupp.obj
 0004:00000d20       $pdata$__crtInitializeCriticalSectionEx 0000000180032d20     LIBCMT:winapisupp.obj
 0004:00000d2c       $pdata$__crtIsPackagedApp  0000000180032d2c     LIBCMT:winapisupp.obj
 0004:00000d38       $pdata$__crtLoadWinApiPointers 0000000180032d38     LIBCMT:winapisupp.obj
 0004:00000d44       $pdata$__crtTerminateProcess 0000000180032d44     LIBCMT:winapisupp.obj
 0004:00000d50       $pdata$__crtUnhandledException 0000000180032d50     LIBCMT:winapisupp.obj
 0004:00000d68       $pdata$__GSHandlerCheck    0000000180032d68     LIBCMT:gshandler.obj
 0004:00000d74       $pdata$__GSHandlerCheckCommon 0000000180032d74     LIBCMT:gshandler.obj
 0004:00000d80       $pdata$__doserrno          0000000180032d80     LIBCMT:dosmap.obj
 0004:00000d8c       $pdata$_dosmaperr          0000000180032d8c     LIBCMT:dosmap.obj
 0004:00000d98       $pdata$_errno              0000000180032d98     LIBCMT:dosmap.obj
 0004:00000da4       $pdata$?x_ismbbtype_l@@YAHPEAUlocaleinfo_struct@@IHH@Z 0000000180032da4     LIBCMT:ismbbyte.obj
 0004:00000db0       $pdata$_tolower_l          0000000180032db0     LIBCMT:tolower.obj
 0004:00000dc8       $pdata$GetTableIndexFromLocaleName 0000000180032dc8     LIBCMT:winapinls.obj
 0004:00000dd4       $pdata$__crtDownlevelLCIDToLocaleName 0000000180032dd4     LIBCMT:winapinls.obj
 0004:00000de0       $pdata$__crtDownlevelLocaleNameToLCID 0000000180032de0     LIBCMT:winapinls.obj
 0004:00000dec       $pdata$__crtEnumSystemLocalesEx 0000000180032dec     LIBCMT:winapinls.obj
 0004:00000df8       $pdata$__crtGetLocaleInfoEx 0000000180032df8     LIBCMT:winapinls.obj
 0004:00000e04       $pdata$__crtGetUserDefaultLocaleName 0000000180032e04     LIBCMT:winapinls.obj
 0004:00000e10       $pdata$__crtIsValidLocaleName 0000000180032e10     LIBCMT:winapinls.obj
 0004:00000e1c       $pdata$__crtLCMapStringEx  0000000180032e1c     LIBCMT:winapinls.obj
 0004:00000e28       $pdata$__crtLCMapStringW   0000000180032e28     LIBCMT:w_map.obj
 0004:00000e34       $pdata$__raise_securityfailure 0000000180032e34     LIBCMT:gs_report.obj
 0004:00000e40       $pdata$__report_gsfailure  0000000180032e40     LIBCMT:gs_report.obj
 0004:00000e4c       $pdata$__report_rangecheckfailure 0000000180032e4c     LIBCMT:gs_report.obj
 0004:00000e58       $pdata$__report_securityfailure 0000000180032e58     LIBCMT:gs_report.obj
 0004:00000e64       $pdata$__isa_available_init 0000000180032e64     LIBCMT:cpu_disp.obj
 0004:00000e70       $pdata$wcscat_s            0000000180032e70     LIBCMT:wcscat_s.obj
 0004:00000e7c       $pdata$wcscpy_s            0000000180032e7c     LIBCMT:wcscpy_s.obj
 0004:00000e88       $pdata$wcsncat_s           0000000180032e88     LIBCMT:wcsncat_s.obj
 0004:00000e94       $pdata$_set_error_mode     0000000180032e94     LIBCMT:errmode.obj
 0004:00000ea0       $pdata$_itow_s             0000000180032ea0     LIBCMT:xtows.obj
 0004:00000eac       $pdata$xtow_s              0000000180032eac     LIBCMT:xtows.obj
 0004:00000eb8       $pdata$fwprintf            0000000180032eb8     LIBCMT:fwprintf.obj
 0004:00000ec4       $pdata$_vswprintf_c_l      0000000180032ec4     LIBCMT:vswprnc.obj
 0004:00000ed0       $pdata$_vswprintf_helper   0000000180032ed0     LIBCMT:vswprnc.obj
 0004:00000edc       $pdata$raise               0000000180032edc     LIBCMT:winsig.obj
 0004:00000ee8       $pdata$__crtMessageBoxW    0000000180032ee8     LIBCMT:crtmboxw.obj
 0004:00000ef4       $pdata$_FF_MSGBANNER       0000000180032ef4     LIBCMT:crt0msg.obj
 0004:00000f00       $pdata$_NMSG_WRITE         0000000180032f00     LIBCMT:crt0msg.obj
 0004:00000f0c       $pdata$_msize              0000000180032f0c     LIBCMT:msize.obj
 0004:00000f18       $pdata$__C_specific_handler 0000000180032f18     LIBCMT:chandler.obj
 0004:00000f24       $pdata$__getlocaleinfo     0000000180032f24     LIBCMT:inithelp.obj
 0004:00000f30       $pdata$_RTC_Initialize     0000000180032f30     LIBCMT:initsect.obj
 0004:00000f3c       $pdata$_RTC_Terminate      0000000180032f3c     LIBCMT:initsect.obj
 0004:00000f48       $pdata$_IsNonwritableInCurrentImage 0000000180032f48     LIBCMT:pesect.obj
 0004:00000f54       $pdata$_initp_misc_cfltcvt_tab 0000000180032f54     LIBCMT:cmiscdat.obj
 0004:00000f60       $pdata$?_inconsistency@@YAXXZ 0000000180032f60     LIBCMT:hooks.obj
 0004:00000f6c       $pdata$?terminate@@YAXXZ   0000000180032f6c     LIBCMT:hooks.obj
 0004:00000f78       $pdata$_initp_eh_hooks     0000000180032f78     LIBCMT:hooks.obj
 0004:00000f84       $pdata$_callnewh           0000000180032f84     LIBCMT:handler.obj
 0004:00000f90       $pdata$__initmbctable      0000000180032f90     LIBCMT:mbctype.obj
 0004:00000f9c       $pdata$?getSystemCP@@YAHH@Z 0000000180032f9c     LIBCMT:mbctype.obj
 0004:00000fa8       $pdata$?setSBCS@@YAXPEAUthreadmbcinfostruct@@@Z 0000000180032fa8     LIBCMT:mbctype.obj
 0004:00000fb4       $pdata$?setSBUpLow@@YAXPEAUthreadmbcinfostruct@@@Z 0000000180032fb4     LIBCMT:mbctype.obj
 0004:00000fc0       $pdata$__updatetmbcinfo    0000000180032fc0     LIBCMT:mbctype.obj
 0004:00000fcc       $pdata$_setmbcp            0000000180032fcc     LIBCMT:mbctype.obj
 0004:00000fd8       $pdata$_setmbcp_nolock     0000000180032fd8     LIBCMT:mbctype.obj
 0004:00000fe4       $pdata$_ftbuf              0000000180032fe4     LIBCMT:_sftbuf.obj
 0004:00000ff0       $pdata$_stbuf              0000000180032ff0     LIBCMT:_sftbuf.obj
 0004:00000ffc       $pdata$__freetlocinfo      0000000180032ffc     LIBCMT:localref.obj
 0004:00001008       $pdata$__updatetlocinfo    0000000180033008     LIBCMT:localref.obj
 0004:00001014       $pdata$_updatetlocinfoEx_nolock 0000000180033014     LIBCMT:localref.obj
 0004:00001020       $pdata$_freefls            0000000180033020     LIBCMT:tidtable.obj
 0004:0000102c       $pdata$_freeptd            000000018003302c     LIBCMT:tidtable.obj
 0004:00001038       $pdata$_getptd             0000000180033038     LIBCMT:tidtable.obj
 0004:00001044       $pdata$_getptd_noexit      0000000180033044     LIBCMT:tidtable.obj
 0004:00001050       $pdata$_initptd            0000000180033050     LIBCMT:tidtable.obj
 0004:0000105c       $pdata$_mtinit             000000018003305c     LIBCMT:tidtable.obj
 0004:00001068       $pdata$_mtterm             0000000180033068     LIBCMT:tidtable.obj
 0004:00001074       $pdata$_locterm            0000000180033074     LIBCMT:wsetloca.obj
 0004:00001080       $pdata$__copy_locale_name  0000000180033080     LIBCMT:wsetloca.obj
 0004:0000108c       $pdata$__lc_lctowcs        000000018003308c     LIBCMT:wsetloca.obj
 0004:00001098       $pdata$__lc_wcstolc        0000000180033098     LIBCMT:wsetloca.obj
 0004:000010a4       $pdata$_copytlocinfo_nolock 00000001800330a4     LIBCMT:wsetloca.obj
 0004:000010b0       $pdata$_expandlocale       00000001800330b0     LIBCMT:wsetloca.obj
 0004:000010bc       $pdata$_wcscats            00000001800330bc     LIBCMT:wsetloca.obj
 0004:000010c8       $pdata$_wsetlocale         00000001800330c8     LIBCMT:wsetloca.obj
 0004:000010d4       $pdata$_wsetlocale_get_all 00000001800330d4     LIBCMT:wsetloca.obj
 0004:000010e0       $pdata$_wsetlocale_nolock  00000001800330e0     LIBCMT:wsetloca.obj
 0004:000010ec       $pdata$_wsetlocale_set_cat 00000001800330ec     LIBCMT:wsetloca.obj
 0004:000010f8       $pdata$_XcptFilter         00000001800330f8     LIBCMT:winxfltr.obj
 0004:00001104       $pdata$_heap_init          0000000180033104     LIBCMT:heapinit.obj
 0004:00001110       $pdata$_ioinit             0000000180033110     LIBCMT:ioinit.obj
 0004:0000111c       $pdata$_ioterm             000000018003311c     LIBCMT:ioinit.obj
 0004:00001128       $pdata$_setargv            0000000180033128     LIBCMT:stdargv.obj
 0004:00001134       $pdata$parse_cmdline       0000000180033134     LIBCMT:stdargv.obj
 0004:00001140       $pdata$_setenvp            0000000180033140     LIBCMT:stdenvp.obj
 0004:0000114c       $pdata$__security_init_cookie 000000018003314c     LIBCMT:gs_support.obj
 0004:00001158       $pdata$__crtGetEnvironmentStringsA 0000000180033158     LIBCMT:a_env.obj
 0004:00001164       $pdata$__DestructExceptionObject 0000000180033164     LIBCMT:frame.obj
 0004:00001170       $pdata$??0bad_exception@std@@QEAA@AEBV01@@Z 0000000180033170     LIBCMT:frame.obj
 0004:0000117c       $pdata$??_Gbad_exception@std@@UEAAPEAXI@Z 000000018003317c     LIBCMT:frame.obj
 0004:00001188       $pdata$?CatchIt@@YAXPEAUEHExceptionRecord@@PEA_KPEAU_CONTEXT@@PEAU_xDISPATCHER_CONTEXT@@PEBU_s_FuncInfo@@PEBU_s_HandlerType@@PEBU_s_CatchableType@@PEBU_s_TryBlockMapEntry@@H1EE@Z 0000000180033188     LIBCMT:frame.obj
 0004:00001194       $pdata$?FindHandler@@YAXPEAUEHExceptionRecord@@PEA_KPEAU_CONTEXT@@PEAU_xDISPATCHER_CONTEXT@@PEBU_s_FuncInfo@@EH1@Z 0000000180033194     LIBCMT:frame.obj
 0004:000011a0       $pdata$?FindHandlerForForeignException@@YAXPEAUEHExceptionRecord@@PEA_KPEAU_CONTEXT@@PEAU_xDISPATCHER_CONTEXT@@PEBU_s_FuncInfo@@HH1@Z 00000001800331a0     LIBCMT:frame.obj
 0004:000011ac       $pdata$?IsInExceptionSpec@@YAEPEAUEHExceptionRecord@@PEBU_s_ESTypeList@@@Z 00000001800331ac     LIBCMT:frame.obj
 0004:000011b8       $pdata$__BuildCatchObject  00000001800331b8     LIBCMT:frame.obj
 0004:000011c4       $pdata$__BuildCatchObjectHelper 00000001800331c4     LIBCMT:frame.obj
 0004:000011d0       $pdata$__CxxCallCatchBlock 00000001800331d0     LIBCMT:frame.obj
 0004:000011dc       $pdata$__FrameUnwindFilter 00000001800331dc     LIBCMT:frame.obj
 0004:000011e8       $pdata$__FrameUnwindToState 00000001800331e8     LIBCMT:frame.obj
 0004:000011f4       $pdata$__InternalCxxFrameHandler 00000001800331f4     LIBCMT:frame.obj
 0004:00001200       $pdata$__TypeMatch         0000000180033200     LIBCMT:frame.obj
 0004:0000120c       $pdata$?__GetCurrentState@@YAHPEA_KPEAU_xDISPATCHER_CONTEXT@@PEBU_s_FuncInfo@@@Z 000000018003320c     LIBCMT:ehstate.obj
 0004:00001218       $pdata$?__GetUnwindTryBlock@@YAHPEA_KPEAU_xDISPATCHER_CONTEXT@@PEBU_s_FuncInfo@@@Z 0000000180033218     LIBCMT:ehstate.obj
 0004:00001224       $pdata$?__SetUnwindTryBlock@@YAXPEA_KPEAU_xDISPATCHER_CONTEXT@@PEBU_s_FuncInfo@@H@Z 0000000180033224     LIBCMT:ehstate.obj
 0004:00001230       $pdata$?__StateFromIp@@YAHPEBU_s_FuncInfo@@PEAU_xDISPATCHER_CONTEXT@@_J@Z 0000000180033230     LIBCMT:ehstate.obj
 0004:0000123c       $pdata$?_Type_info_dtor@type_info@@CAXPEAV1@@Z 000000018003323c     LIBCMT:typname.obj
 0004:00001248       $pdata$_cfltcvt            0000000180033248     LIBCMT:cvt.obj
 0004:00001254       $pdata$_cfltcvt_l          0000000180033254     LIBCMT:cvt.obj
 0004:00001260       $pdata$_cftoa_l            0000000180033260     LIBCMT:cvt.obj
 0004:0000126c       $pdata$_cftoe2_l           000000018003326c     LIBCMT:cvt.obj
 0004:00001278       $pdata$_cftoe_l            0000000180033278     LIBCMT:cvt.obj
 0004:00001284       $pdata$_cftof2_l           0000000180033284     LIBCMT:cvt.obj
 0004:00001290       $pdata$_cftof_l            0000000180033290     LIBCMT:cvt.obj
 0004:0000129c       $pdata$_cftog_l            000000018003329c     LIBCMT:cvt.obj
 0004:000012a8       $pdata$_cropzeros_l        00000001800332a8     LIBCMT:cvt.obj
 0004:000012b4       $pdata$_fassign_l          00000001800332b4     LIBCMT:cvt.obj
 0004:000012c0       $pdata$_forcdecpt_l        00000001800332c0     LIBCMT:cvt.obj
 0004:000012cc       $pdata$strcpy_s            00000001800332cc     LIBCMT:strcpy_s.obj
 0004:000012d8       $pdata$_fcloseall          00000001800332d8     LIBCMT:closeall.obj
 0004:000012e4       $pdata$_fileno             00000001800332e4     LIBCMT:fileno.obj
 0004:000012f0       $pdata$_close              00000001800332f0     LIBCMT:close.obj
 0004:000012fc       $pdata$_close_nolock       00000001800332fc     LIBCMT:close.obj
 0004:00001308       $pdata$_freebuf            0000000180033308     LIBCMT:_freebuf.obj
 0004:00001314       $pdata$_commit             0000000180033314     LIBCMT:commit.obj
 0004:00001320       $pdata$_write              0000000180033320     LIBCMT:write.obj
 0004:0000132c       $pdata$_write_nolock       000000018003332c     LIBCMT:write.obj
 0004:00001338       $pdata$_filbuf             0000000180033338     LIBCMT:_filbuf.obj
 0004:00001344       $pdata$_ftelli64           0000000180033344     LIBCMT:ftelli64.obj
 0004:00001350       $pdata$_ftelli64_nolock    0000000180033350     LIBCMT:ftelli64.obj
 0004:0000135c       $pdata$_flsbuf             000000018003335c     LIBCMT:_flsbuf.obj
 0004:00001368       $pdata$_lseeki64           0000000180033368     LIBCMT:lseeki64.obj
 0004:00001374       $pdata$_lseeki64_nolock    0000000180033374     LIBCMT:lseeki64.obj
 0004:00001380       $pdata$_getbuf             0000000180033380     LIBCMT:_getbuf.obj
 0004:0000138c       $pdata$_isctype_l          000000018003338c     LIBCMT:isctype.obj
 0004:00001398       $pdata$calloc              0000000180033398     LIBCMT:calloc.obj
 0004:000013a4       $pdata$?__crtGetStringTypeA_stat@@YAHPEAUlocaleinfo_struct@@KPEBDHPEAGHH@Z 00000001800333a4     LIBCMT:a_str.obj
 0004:000013b0       $pdata$__crtGetStringTypeA 00000001800333b0     LIBCMT:a_str.obj
 0004:000013c8       $pdata$realloc             00000001800333c8     LIBCMT:realloc.obj
 0004:000013d4       $pdata$_calloc_impl        00000001800333d4     LIBCMT:calloc_impl.obj
 0004:000013e0       $pdata$_mbstowcs_l_helper  00000001800333e0     LIBCMT:mbstowcs.obj
 0004:000013ec       $pdata$_mbstowcs_s_l       00000001800333ec     LIBCMT:mbstowcs.obj
 0004:000013f8       $pdata$mbstowcs_s          00000001800333f8     LIBCMT:mbstowcs.obj
 0004:00001404       $pdata$_wcstombs_l_helper  0000000180033404     LIBCMT:wcstombs.obj
 0004:00001410       $pdata$_wcstombs_s_l       0000000180033410     LIBCMT:wcstombs.obj
 0004:0000141c       $pdata$_wcsicmp            000000018003341c     LIBCMT:wcsicmp.obj
 0004:00001428       $pdata$_wcsicmp_l          0000000180033428     LIBCMT:wcsicmp.obj
 0004:00001434       $pdata$_isleadbyte_l       0000000180033434     LIBCMT:_wctype.obj
 0004:00001440       $pdata$isleadbyte          0000000180033440     LIBCMT:_wctype.obj
 0004:0000144c       $pdata$_woutput_l          000000018003344c     LIBCMT:woutput.obj
 0004:00001458       $pdata$write_char          0000000180033458     LIBCMT:woutput.obj
 0004:00001464       $pdata$write_multi_char    0000000180033464     LIBCMT:woutput.obj
 0004:00001470       $pdata$write_string        0000000180033470     LIBCMT:woutput.obj
 0004:0000147c       $pdata$wcsncpy_s           000000018003347c     LIBCMT:wcsncpy_s.obj
 0004:000014b8       $pdata$strncpy_s           00000001800334b8     LIBCMT:strncpy_s.obj
 0004:000014c4       $pdata$?__crtGetLocaleInfoA_stat@@YAHPEAUlocaleinfo_struct@@PEB_WKPEADH@Z 00000001800334c4     LIBCMT:a_loc.obj
 0004:000014d0       $pdata$__crtGetLocaleInfoA 00000001800334d0     LIBCMT:a_loc.obj
 0004:000014e8       $pdata$_isatty             00000001800334e8     LIBCMT:isatty.obj
 0004:000014f4       $pdata$__free_lconv_mon    00000001800334f4     LIBCMT:initmon.obj
 0004:00001500       $pdata$__init_monetary     0000000180033500     LIBCMT:initmon.obj
 0004:0000150c       $pdata$__free_lconv_num    000000018003350c     LIBCMT:initnum.obj
 0004:00001518       $pdata$__init_numeric      0000000180033518     LIBCMT:initnum.obj
 0004:00001524       $pdata$__free_lc_time      0000000180033524     LIBCMT:inittime.obj
 0004:00001530       $pdata$__init_time         0000000180033530     LIBCMT:inittime.obj
 0004:0000153c       $pdata$_get_lc_time        000000018003353c     LIBCMT:inittime.obj
 0004:00001548       $pdata$GetLocaleNameFromLangCountry 0000000180033548     LIBCMT:getqloc.obj
 0004:00001554       $pdata$GetLocaleNameFromLanguage 0000000180033554     LIBCMT:getqloc.obj
 0004:00001560       $pdata$LangCountryEnumProcEx 0000000180033560     LIBCMT:getqloc.obj
 0004:0000156c       $pdata$LanguageEnumProcEx  000000018003356c     LIBCMT:getqloc.obj
 0004:00001578       $pdata$ProcessCodePage     0000000180033578     LIBCMT:getqloc.obj
 0004:00001584       $pdata$TestDefaultCountry  0000000180033584     LIBCMT:getqloc.obj
 0004:00001590       $pdata$__get_qualified_locale 0000000180033590     LIBCMT:getqloc.obj
 0004:0000159c       $pdata$CountryEnumProc     000000018003359c     LIBCMT:getqloc_downlevel.obj
 0004:000015a8       $pdata$GetLcidFromLangCountry 00000001800335a8     LIBCMT:getqloc_downlevel.obj
 0004:000015b4       $pdata$GetLcidFromLanguage 00000001800335b4     LIBCMT:getqloc_downlevel.obj
 0004:000015c0       $pdata$LangCountryEnumProc 00000001800335c0     LIBCMT:getqloc_downlevel.obj
 0004:000015cc       $pdata$LanguageEnumProc    00000001800335cc     LIBCMT:getqloc_downlevel.obj
 0004:000015d8       $pdata$ProcessCodePage     00000001800335d8     LIBCMT:getqloc_downlevel.obj
 0004:000015e4       $pdata$TestDefaultLanguage 00000001800335e4     LIBCMT:getqloc_downlevel.obj
 0004:000015f0       $pdata$TranslateName       00000001800335f0     LIBCMT:getqloc_downlevel.obj
 0004:000015f0       $pdata$TranslateName       00000001800335f0     LIBCMT:getqloc_downlevel.obj
 0004:000015fc       $pdata$__get_qualified_locale_downlevel 00000001800335fc     LIBCMT:getqloc_downlevel.obj
 0004:00001614       $pdata$strrchr             0000000180033614     LIBCMT:strrchr.obj
 0004:00001620       $pdata$_fptostr            0000000180033620     LIBCMT:_fptostr.obj
 0004:0000162c       $pdata$__crt_atoflt_l      000000018003362c     LIBCMT:atodbl.obj
 0004:00001638       $pdata$_atodbl_l           0000000180033638     LIBCMT:atodbl.obj
 0004:00001644       $pdata$__dtold             0000000180033644     LIBCMT:cfout.obj
 0004:00001650       $pdata$_fltout2            0000000180033650     LIBCMT:cfout.obj
 0004:0000165c       $pdata$__lock_fhandle      000000018003365c     LIBCMT:osfinfo.obj
 0004:00001668       $pdata$_free_osfhnd        0000000180033668     LIBCMT:osfinfo.obj
 0004:00001674       $pdata$_get_osfhandle      0000000180033674     LIBCMT:osfinfo.obj
 0004:00001680       $pdata$_mbtowc_l           0000000180033680     LIBCMT:mbtowc.obj
 0004:0000168c       $pdata$_putwch_nolock      000000018003368c     LIBCMT:putwch.obj
 0004:00001698       $pdata$_read               0000000180033698     LIBCMT:read.obj
 0004:000016a4       $pdata$_read_nolock        00000001800336a4     LIBCMT:read.obj
 0004:000016b0       $pdata$_wctomb_s_l         00000001800336b0     LIBCMT:wctomb.obj
 0004:000016bc       $pdata$wctomb_s            00000001800336bc     LIBCMT:wctomb.obj
 0004:000016c8       $pdata$_towlower_l         00000001800336c8     LIBCMT:towlower.obj
 0004:000016d4       $pdata$iswctype            00000001800336d4     LIBCMT:iswctype.obj
 0004:000016e0       $pdata$_fputwc_nolock      00000001800336e0     LIBCMT:fputwc.obj
 0004:000016ec       $pdata$?wcstoxl@@YAKPEB_WPEAPEB_WHH@Z 00000001800336ec     LIBCMT:wcstol.obj
 0004:000016f8       $pdata$wcschr              00000001800336f8     LIBCMT:wcschr.obj
 0004:00001704       $pdata$_wcsnicmp           0000000180033704     LIBCMT:wcsnicmp.obj
 0004:00001710       $pdata$_wcsnicmp_l         0000000180033710     LIBCMT:wcsnicmp.obj
 0004:0000171c       $pdata$_ld12tod            000000018003371c     LIBCMT:intrncvt.obj
 0004:00001728       $pdata$_ld12tof            0000000180033728     LIBCMT:intrncvt.obj
 0004:00001734       $pdata$__strgtold12_l      0000000180033734     LIBCMT:strgtold.obj
 0004:00001740       $pdata$$I10_OUTPUT         0000000180033740     LIBCMT:x10fout.obj
 0004:0000174c       $pdata$__termconout        000000018003374c     LIBCMT:initcon.obj
 0004:00001758       $pdata$__initconout        0000000180033758     LIBCMT:initcon.obj
 0004:00001764       $pdata$_flswbuf            0000000180033764     LIBCMT:_flswbuf.obj
 0004:00001770       $pdata$__mtold12           0000000180033770     LIBCMT:mantold.obj
 0004:0000177c       $pdata$__delayLoadHelper2  000000018003377c     DelayImp:delayhlp.obj
 0004:00001788       $pdata$?dtor$0@?0???0?$basic_ostream@DU?$char_traits@D@std@@@std@@QEAA@PEAV?$basic_streambuf@DU?$char_traits@D@std@@@1@_N@Z@4HA 0000000180033788     libcpmt:cerr.obj
 0004:00001794       $pdata$_onexit$fin$0       0000000180033794     LIBCMT:onexit.obj
 0004:000017a0       $pdata$doexit$fin$0        00000001800337a0     LIBCMT:crt0dat.obj
 0004:000017ac       $pdata$_CRT_INIT$fin$0     00000001800337ac     LIBCMT:dllcrt0.obj
 0004:000017b8       $pdata$__DllMainCRTStartup$filt$0 00000001800337b8     LIBCMT:dllcrt0.obj
 0004:000017c4       $pdata$_CallSETranslator$filt$0 00000001800337c4     LIBCMT:trnsctrl.obj
 0004:000017d0       $pdata$fgetc$fin$0         00000001800337d0     LIBCMT:fclose.obj
 0004:000017d0       $pdata$_fseeki64$fin$0     00000001800337d0     LIBCMT:fclose.obj
 0004:000017d0       $pdata$_ftelli64$fin$0     00000001800337d0     LIBCMT:fclose.obj
 0004:000017d0       $pdata$fclose$fin$0        00000001800337d0     LIBCMT:fclose.obj
 0004:000017d0       $pdata$fflush$fin$0        00000001800337d0     LIBCMT:fclose.obj
 0004:000017dc       $pdata$flsall$fin$0        00000001800337dc     LIBCMT:fflush.obj
 0004:000017e8       $pdata$flsall$fin$1        00000001800337e8     LIBCMT:fflush.obj
 0004:000017f4       $pdata$ungetc$fin$0        00000001800337f4     LIBCMT:fputc.obj
 0004:000017f4       $pdata$fputc$fin$0         00000001800337f4     LIBCMT:fputc.obj
 0004:00001800       $pdata$fwrite$fin$0        0000000180033800     LIBCMT:fwrite.obj
 0004:0000180c       $pdata$setvbuf$fin$0       000000018003380c     LIBCMT:setvbuf.obj
 0004:00001818       $pdata$_mtinitlocknum$fin$0 0000000180033818     LIBCMT:mlock.obj
 0004:00001824       $pdata$setlocale$fin$0     0000000180033824     LIBCMT:setlocal.obj
 0004:00001830       $pdata$fwprintf$fin$0      0000000180033830     LIBCMT:fwprintf.obj
 0004:0000183c       $pdata$raise$fin$0         000000018003383c     LIBCMT:winsig.obj
 0004:00001848       $pdata$_IsNonwritableInCurrentImage$filt$0 0000000180033848     LIBCMT:pesect.obj
 0004:00001854       $pdata$_setmbcp$fin$0      0000000180033854     LIBCMT:mbctype.obj
 0004:00001854       $pdata$__updatetmbcinfo$fin$0 0000000180033854     LIBCMT:mbctype.obj
 0004:00001860       $pdata$__updatetlocinfo$fin$0 0000000180033860     LIBCMT:localref.obj
 0004:00001860       $pdata$_locterm$fin$0      0000000180033860     LIBCMT:localref.obj
 0004:0000186c       $pdata$_freefls$fin$1      000000018003386c     LIBCMT:tidtable.obj
 0004:0000186c       $pdata$_initptd$fin$1      000000018003386c     LIBCMT:tidtable.obj
 0004:00001878       $pdata$_initptd$fin$0      0000000180033878     LIBCMT:tidtable.obj
 0004:00001878       $pdata$_freefls$fin$0      0000000180033878     LIBCMT:tidtable.obj
 0004:00001884       $pdata$_wsetlocale$fin$1   0000000180033884     LIBCMT:wsetloca.obj
 0004:00001890       $pdata$_wsetlocale$fin$0   0000000180033890     LIBCMT:wsetloca.obj
 0004:0000189c       $pdata$_wsetlocale$fin$2   000000018003389c     LIBCMT:wsetloca.obj
 0004:000018a8       $pdata$_ioinit$fin$0       00000001800338a8     LIBCMT:ioinit.obj
 0004:000018b4       $pdata$__CxxCallCatchBlock$filt$0 00000001800338b4     LIBCMT:frame.obj
 0004:000018c0       $pdata$__CxxCallCatchBlock$fin$1 00000001800338c0     LIBCMT:frame.obj
 0004:000018cc       $pdata$__DestructExceptionObject$filt$0 00000001800338cc     LIBCMT:frame.obj
 0004:000018d8       $pdata$__FrameUnwindToState$filt$0 00000001800338d8     LIBCMT:frame.obj
 0004:000018e4       $pdata$__FrameUnwindToState$fin$1 00000001800338e4     LIBCMT:frame.obj
 0004:000018f0       $pdata$?fin$0@?0??_Type_info_dtor@type_info@@CAXPEAV1@@Z@4HA 00000001800338f0     LIBCMT:typname.obj
 0004:000018fc       $pdata$_fcloseall$fin$0    00000001800338fc     LIBCMT:closeall.obj
 0004:00001908       $pdata$_commit$fin$0       0000000180033908     LIBCMT:close.obj
 0004:00001908       $pdata$_close$fin$0        0000000180033908     LIBCMT:close.obj
 0004:00001914       $pdata$_write$fin$0        0000000180033914     LIBCMT:write.obj
 0004:00001914       $pdata$_lseeki64$fin$0     0000000180033914     LIBCMT:write.obj
 0004:00001914       $pdata$_read$fin$0         0000000180033914     LIBCMT:write.obj
 0004:00001920       $pdata$__lock_fhandle$fin$0 0000000180033920     LIBCMT:osfinfo.obj
 0004:0000192c       $pdata$??__F?orphaned_fibers@Fiber@@0V?$vector@PEAVFiber@@V?$allocator@PEAVFiber@@@std@@@std@@A@@YAXXZ 000000018003392c     fibers.obj
 0004:00001938       $pdata$??__Ffls_data_pool@@YAXXZ 0000000180033938     coroutine.obj
 0004:00001944       $pdata$??__Ffiber_pool@@YAXXZ 0000000180033944     coroutine.obj
 0004:00001950       $pdata$??__F_Fac_tidy_reg@std@@YAXXZ 0000000180033950     libcpmt:locale0.obj
 0004:0000195c       $pdata$??__Fclassic_locale@std@@YAXXZ 000000018003395c     libcpmt:locale0.obj
 0004:00001968       $pdata$??__Finit_atexit@@YAXXZ 0000000180033968     libcpmt:iosptrs.obj
 0005:00000060       $R000000                   0000000180034060     * linker generated manifest res *

 Exports

  ordinal    name

        1    _register_fibers_
